
ctarget:     file format elf64-x86-64


Disassembly of section .init:

0000000000401000 <_init>:
  401000:	f3 0f 1e fa          	endbr64 
  401004:	48 83 ec 08          	sub    $0x8,%rsp
  401008:	48 8b 05 e1 8f 00 00 	mov    0x8fe1(%rip),%rax        # 409ff0 <__gmon_start__>
  40100f:	48 85 c0             	test   %rax,%rax
  401012:	74 02                	je     401016 <_init+0x16>
  401014:	ff d0                	callq  *%rax
  401016:	48 83 c4 08          	add    $0x8,%rsp
  40101a:	c3                   	retq   

Disassembly of section .plt:

0000000000401020 <.plt>:
  401020:	ff 35 e2 8f 00 00    	pushq  0x8fe2(%rip)        # 40a008 <_GLOBAL_OFFSET_TABLE_+0x8>
  401026:	ff 25 e4 8f 00 00    	jmpq   *0x8fe4(%rip)        # 40a010 <_GLOBAL_OFFSET_TABLE_+0x10>
  40102c:	0f 1f 40 00          	nopl   0x0(%rax)

0000000000401030 <strcasecmp@plt>:
  401030:	ff 25 e2 8f 00 00    	jmpq   *0x8fe2(%rip)        # 40a018 <strcasecmp@GLIBC_2.2.5>
  401036:	68 00 00 00 00       	pushq  $0x0
  40103b:	e9 e0 ff ff ff       	jmpq   401020 <.plt>

0000000000401040 <__errno_location@plt>:
  401040:	ff 25 da 8f 00 00    	jmpq   *0x8fda(%rip)        # 40a020 <__errno_location@GLIBC_2.2.5>
  401046:	68 01 00 00 00       	pushq  $0x1
  40104b:	e9 d0 ff ff ff       	jmpq   401020 <.plt>

0000000000401050 <srandom@plt>:
  401050:	ff 25 d2 8f 00 00    	jmpq   *0x8fd2(%rip)        # 40a028 <srandom@GLIBC_2.2.5>
  401056:	68 02 00 00 00       	pushq  $0x2
  40105b:	e9 c0 ff ff ff       	jmpq   401020 <.plt>

0000000000401060 <strncpy@plt>:
  401060:	ff 25 ca 8f 00 00    	jmpq   *0x8fca(%rip)        # 40a030 <strncpy@GLIBC_2.2.5>
  401066:	68 03 00 00 00       	pushq  $0x3
  40106b:	e9 b0 ff ff ff       	jmpq   401020 <.plt>

0000000000401070 <strncmp@plt>:
  401070:	ff 25 c2 8f 00 00    	jmpq   *0x8fc2(%rip)        # 40a038 <strncmp@GLIBC_2.2.5>
  401076:	68 04 00 00 00       	pushq  $0x4
  40107b:	e9 a0 ff ff ff       	jmpq   401020 <.plt>

0000000000401080 <strcpy@plt>:
  401080:	ff 25 ba 8f 00 00    	jmpq   *0x8fba(%rip)        # 40a040 <strcpy@GLIBC_2.2.5>
  401086:	68 05 00 00 00       	pushq  $0x5
  40108b:	e9 90 ff ff ff       	jmpq   401020 <.plt>

0000000000401090 <puts@plt>:
  401090:	ff 25 b2 8f 00 00    	jmpq   *0x8fb2(%rip)        # 40a048 <puts@GLIBC_2.2.5>
  401096:	68 06 00 00 00       	pushq  $0x6
  40109b:	e9 80 ff ff ff       	jmpq   401020 <.plt>

00000000004010a0 <write@plt>:
  4010a0:	ff 25 aa 8f 00 00    	jmpq   *0x8faa(%rip)        # 40a050 <write@GLIBC_2.2.5>
  4010a6:	68 07 00 00 00       	pushq  $0x7
  4010ab:	e9 70 ff ff ff       	jmpq   401020 <.plt>

00000000004010b0 <strlen@plt>:
  4010b0:	ff 25 a2 8f 00 00    	jmpq   *0x8fa2(%rip)        # 40a058 <strlen@GLIBC_2.2.5>
  4010b6:	68 08 00 00 00       	pushq  $0x8
  4010bb:	e9 60 ff ff ff       	jmpq   401020 <.plt>

00000000004010c0 <mmap@plt>:
  4010c0:	ff 25 9a 8f 00 00    	jmpq   *0x8f9a(%rip)        # 40a060 <mmap@GLIBC_2.2.5>
  4010c6:	68 09 00 00 00       	pushq  $0x9
  4010cb:	e9 50 ff ff ff       	jmpq   401020 <.plt>

00000000004010d0 <printf@plt>:
  4010d0:	ff 25 92 8f 00 00    	jmpq   *0x8f92(%rip)        # 40a068 <printf@GLIBC_2.2.5>
  4010d6:	68 0a 00 00 00       	pushq  $0xa
  4010db:	e9 40 ff ff ff       	jmpq   401020 <.plt>

00000000004010e0 <memset@plt>:
  4010e0:	ff 25 8a 8f 00 00    	jmpq   *0x8f8a(%rip)        # 40a070 <memset@GLIBC_2.2.5>
  4010e6:	68 0b 00 00 00       	pushq  $0xb
  4010eb:	e9 30 ff ff ff       	jmpq   401020 <.plt>

00000000004010f0 <alarm@plt>:
  4010f0:	ff 25 82 8f 00 00    	jmpq   *0x8f82(%rip)        # 40a078 <alarm@GLIBC_2.2.5>
  4010f6:	68 0c 00 00 00       	pushq  $0xc
  4010fb:	e9 20 ff ff ff       	jmpq   401020 <.plt>

0000000000401100 <close@plt>:
  401100:	ff 25 7a 8f 00 00    	jmpq   *0x8f7a(%rip)        # 40a080 <close@GLIBC_2.2.5>
  401106:	68 0d 00 00 00       	pushq  $0xd
  40110b:	e9 10 ff ff ff       	jmpq   401020 <.plt>

0000000000401110 <read@plt>:
  401110:	ff 25 72 8f 00 00    	jmpq   *0x8f72(%rip)        # 40a088 <read@GLIBC_2.2.5>
  401116:	68 0e 00 00 00       	pushq  $0xe
  40111b:	e9 00 ff ff ff       	jmpq   401020 <.plt>

0000000000401120 <strcmp@plt>:
  401120:	ff 25 6a 8f 00 00    	jmpq   *0x8f6a(%rip)        # 40a090 <strcmp@GLIBC_2.2.5>
  401126:	68 0f 00 00 00       	pushq  $0xf
  40112b:	e9 f0 fe ff ff       	jmpq   401020 <.plt>

0000000000401130 <signal@plt>:
  401130:	ff 25 62 8f 00 00    	jmpq   *0x8f62(%rip)        # 40a098 <signal@GLIBC_2.2.5>
  401136:	68 10 00 00 00       	pushq  $0x10
  40113b:	e9 e0 fe ff ff       	jmpq   401020 <.plt>

0000000000401140 <gethostbyname@plt>:
  401140:	ff 25 5a 8f 00 00    	jmpq   *0x8f5a(%rip)        # 40a0a0 <gethostbyname@GLIBC_2.2.5>
  401146:	68 11 00 00 00       	pushq  $0x11
  40114b:	e9 d0 fe ff ff       	jmpq   401020 <.plt>

0000000000401150 <fprintf@plt>:
  401150:	ff 25 52 8f 00 00    	jmpq   *0x8f52(%rip)        # 40a0a8 <fprintf@GLIBC_2.2.5>
  401156:	68 12 00 00 00       	pushq  $0x12
  40115b:	e9 c0 fe ff ff       	jmpq   401020 <.plt>

0000000000401160 <strtol@plt>:
  401160:	ff 25 4a 8f 00 00    	jmpq   *0x8f4a(%rip)        # 40a0b0 <strtol@GLIBC_2.2.5>
  401166:	68 13 00 00 00       	pushq  $0x13
  40116b:	e9 b0 fe ff ff       	jmpq   401020 <.plt>

0000000000401170 <memcpy@plt>:
  401170:	ff 25 42 8f 00 00    	jmpq   *0x8f42(%rip)        # 40a0b8 <memcpy@GLIBC_2.14>
  401176:	68 14 00 00 00       	pushq  $0x14
  40117b:	e9 a0 fe ff ff       	jmpq   401020 <.plt>

0000000000401180 <prctl@plt>:
  401180:	ff 25 3a 8f 00 00    	jmpq   *0x8f3a(%rip)        # 40a0c0 <prctl@GLIBC_2.2.5>
  401186:	68 15 00 00 00       	pushq  $0x15
  40118b:	e9 90 fe ff ff       	jmpq   401020 <.plt>

0000000000401190 <time@plt>:
  401190:	ff 25 32 8f 00 00    	jmpq   *0x8f32(%rip)        # 40a0c8 <time@GLIBC_2.2.5>
  401196:	68 16 00 00 00       	pushq  $0x16
  40119b:	e9 80 fe ff ff       	jmpq   401020 <.plt>

00000000004011a0 <random@plt>:
  4011a0:	ff 25 2a 8f 00 00    	jmpq   *0x8f2a(%rip)        # 40a0d0 <random@GLIBC_2.2.5>
  4011a6:	68 17 00 00 00       	pushq  $0x17
  4011ab:	e9 70 fe ff ff       	jmpq   401020 <.plt>

00000000004011b0 <munmap@plt>:
  4011b0:	ff 25 22 8f 00 00    	jmpq   *0x8f22(%rip)        # 40a0d8 <munmap@GLIBC_2.2.5>
  4011b6:	68 18 00 00 00       	pushq  $0x18
  4011bb:	e9 60 fe ff ff       	jmpq   401020 <.plt>

00000000004011c0 <memmove@plt>:
  4011c0:	ff 25 1a 8f 00 00    	jmpq   *0x8f1a(%rip)        # 40a0e0 <memmove@GLIBC_2.2.5>
  4011c6:	68 19 00 00 00       	pushq  $0x19
  4011cb:	e9 50 fe ff ff       	jmpq   401020 <.plt>

00000000004011d0 <fopen@plt>:
  4011d0:	ff 25 12 8f 00 00    	jmpq   *0x8f12(%rip)        # 40a0e8 <fopen@GLIBC_2.2.5>
  4011d6:	68 1a 00 00 00       	pushq  $0x1a
  4011db:	e9 40 fe ff ff       	jmpq   401020 <.plt>

00000000004011e0 <perror@plt>:
  4011e0:	ff 25 0a 8f 00 00    	jmpq   *0x8f0a(%rip)        # 40a0f0 <perror@GLIBC_2.2.5>
  4011e6:	68 1b 00 00 00       	pushq  $0x1b
  4011eb:	e9 30 fe ff ff       	jmpq   401020 <.plt>

00000000004011f0 <getopt@plt>:
  4011f0:	ff 25 02 8f 00 00    	jmpq   *0x8f02(%rip)        # 40a0f8 <getopt@GLIBC_2.2.5>
  4011f6:	68 1c 00 00 00       	pushq  $0x1c
  4011fb:	e9 20 fe ff ff       	jmpq   401020 <.plt>

0000000000401200 <strtoul@plt>:
  401200:	ff 25 fa 8e 00 00    	jmpq   *0x8efa(%rip)        # 40a100 <strtoul@GLIBC_2.2.5>
  401206:	68 1d 00 00 00       	pushq  $0x1d
  40120b:	e9 10 fe ff ff       	jmpq   401020 <.plt>

0000000000401210 <gethostname@plt>:
  401210:	ff 25 f2 8e 00 00    	jmpq   *0x8ef2(%rip)        # 40a108 <gethostname@GLIBC_2.2.5>
  401216:	68 1e 00 00 00       	pushq  $0x1e
  40121b:	e9 00 fe ff ff       	jmpq   401020 <.plt>

0000000000401220 <sprintf@plt>:
  401220:	ff 25 ea 8e 00 00    	jmpq   *0x8eea(%rip)        # 40a110 <sprintf@GLIBC_2.2.5>
  401226:	68 1f 00 00 00       	pushq  $0x1f
  40122b:	e9 f0 fd ff ff       	jmpq   401020 <.plt>

0000000000401230 <exit@plt>:
  401230:	ff 25 e2 8e 00 00    	jmpq   *0x8ee2(%rip)        # 40a118 <exit@GLIBC_2.2.5>
  401236:	68 20 00 00 00       	pushq  $0x20
  40123b:	e9 e0 fd ff ff       	jmpq   401020 <.plt>

0000000000401240 <connect@plt>:
  401240:	ff 25 da 8e 00 00    	jmpq   *0x8eda(%rip)        # 40a120 <connect@GLIBC_2.2.5>
  401246:	68 21 00 00 00       	pushq  $0x21
  40124b:	e9 d0 fd ff ff       	jmpq   401020 <.plt>

0000000000401250 <fwrite@plt>:
  401250:	ff 25 d2 8e 00 00    	jmpq   *0x8ed2(%rip)        # 40a128 <fwrite@GLIBC_2.2.5>
  401256:	68 22 00 00 00       	pushq  $0x22
  40125b:	e9 c0 fd ff ff       	jmpq   401020 <.plt>

0000000000401260 <getc@plt>:
  401260:	ff 25 ca 8e 00 00    	jmpq   *0x8eca(%rip)        # 40a130 <getc@GLIBC_2.2.5>
  401266:	68 23 00 00 00       	pushq  $0x23
  40126b:	e9 b0 fd ff ff       	jmpq   401020 <.plt>

0000000000401270 <socket@plt>:
  401270:	ff 25 c2 8e 00 00    	jmpq   *0x8ec2(%rip)        # 40a138 <socket@GLIBC_2.2.5>
  401276:	68 24 00 00 00       	pushq  $0x24
  40127b:	e9 a0 fd ff ff       	jmpq   401020 <.plt>

Disassembly of section .text:

0000000000402000 <_start>:
  402000:	f3 0f 1e fa          	endbr64 
  402004:	31 ed                	xor    %ebp,%ebp
  402006:	49 89 d1             	mov    %rdx,%r9
  402009:	5e                   	pop    %rsi
  40200a:	48 89 e2             	mov    %rsp,%rdx
  40200d:	48 83 e4 f0          	and    $0xfffffffffffffff0,%rsp
  402011:	50                   	push   %rax
  402012:	54                   	push   %rsp
  402013:	45 31 c0             	xor    %r8d,%r8d
  402016:	31 c9                	xor    %ecx,%ecx
  402018:	48 c7 c7 d6 25 40 00 	mov    $0x4025d6,%rdi
  40201f:	ff 15 bb 7f 00 00    	callq  *0x7fbb(%rip)        # 409fe0 <__libc_start_main@GLIBC_2.34>
  402025:	f4                   	hlt    
  402026:	66 2e 0f 1f 84 00 00 	nopw   %cs:0x0(%rax,%rax,1)
  40202d:	00 00 00 

0000000000402030 <_dl_relocate_static_pie>:
  402030:	f3 0f 1e fa          	endbr64 
  402034:	c3                   	retq   
  402035:	66 2e 0f 1f 84 00 00 	nopw   %cs:0x0(%rax,%rax,1)
  40203c:	00 00 00 
  40203f:	90                   	nop

0000000000402040 <deregister_tm_clones>:
  402040:	48 8d 3d 51 89 00 00 	lea    0x8951(%rip),%rdi        # 40a998 <__TMC_END__>
  402047:	48 8d 05 4a 89 00 00 	lea    0x894a(%rip),%rax        # 40a998 <__TMC_END__>
  40204e:	48 39 f8             	cmp    %rdi,%rax
  402051:	74 15                	je     402068 <deregister_tm_clones+0x28>
  402053:	48 8b 05 8e 7f 00 00 	mov    0x7f8e(%rip),%rax        # 409fe8 <_ITM_deregisterTMCloneTable>
  40205a:	48 85 c0             	test   %rax,%rax
  40205d:	74 09                	je     402068 <deregister_tm_clones+0x28>
  40205f:	ff e0                	jmpq   *%rax
  402061:	0f 1f 80 00 00 00 00 	nopl   0x0(%rax)
  402068:	c3                   	retq   
  402069:	0f 1f 80 00 00 00 00 	nopl   0x0(%rax)

0000000000402070 <register_tm_clones>:
  402070:	48 8d 3d 21 89 00 00 	lea    0x8921(%rip),%rdi        # 40a998 <__TMC_END__>
  402077:	48 8d 35 1a 89 00 00 	lea    0x891a(%rip),%rsi        # 40a998 <__TMC_END__>
  40207e:	48 29 fe             	sub    %rdi,%rsi
  402081:	48 89 f0             	mov    %rsi,%rax
  402084:	48 c1 ee 3f          	shr    $0x3f,%rsi
  402088:	48 c1 f8 03          	sar    $0x3,%rax
  40208c:	48 01 c6             	add    %rax,%rsi
  40208f:	48 d1 fe             	sar    %rsi
  402092:	74 14                	je     4020a8 <register_tm_clones+0x38>
  402094:	48 8b 05 5d 7f 00 00 	mov    0x7f5d(%rip),%rax        # 409ff8 <_ITM_registerTMCloneTable>
  40209b:	48 85 c0             	test   %rax,%rax
  40209e:	74 08                	je     4020a8 <register_tm_clones+0x38>
  4020a0:	ff e0                	jmpq   *%rax
  4020a2:	66 0f 1f 44 00 00    	nopw   0x0(%rax,%rax,1)
  4020a8:	c3                   	retq   
  4020a9:	0f 1f 80 00 00 00 00 	nopl   0x0(%rax)

00000000004020b0 <__do_global_dtors_aux>:
  4020b0:	f3 0f 1e fa          	endbr64 
  4020b4:	80 3d 2d 89 00 00 00 	cmpb   $0x0,0x892d(%rip)        # 40a9e8 <completed.0>
  4020bb:	75 13                	jne    4020d0 <__do_global_dtors_aux+0x20>
  4020bd:	55                   	push   %rbp
  4020be:	48 89 e5             	mov    %rsp,%rbp
  4020c1:	e8 7a ff ff ff       	callq  402040 <deregister_tm_clones>
  4020c6:	c6 05 1b 89 00 00 01 	movb   $0x1,0x891b(%rip)        # 40a9e8 <completed.0>
  4020cd:	5d                   	pop    %rbp
  4020ce:	c3                   	retq   
  4020cf:	90                   	nop
  4020d0:	c3                   	retq   
  4020d1:	66 66 2e 0f 1f 84 00 	data16 nopw %cs:0x0(%rax,%rax,1)
  4020d8:	00 00 00 00 
  4020dc:	0f 1f 40 00          	nopl   0x0(%rax)

00000000004020e0 <frame_dummy>:
  4020e0:	f3 0f 1e fa          	endbr64 
  4020e4:	eb 8a                	jmp    402070 <register_tm_clones>

00000000004020e6 <usage>:
  4020e6:	48 83 ec 08          	sub    $0x8,%rsp
  4020ea:	48 89 fe             	mov    %rdi,%rsi
  4020ed:	83 3d 40 89 00 00 00 	cmpl   $0x0,0x8940(%rip)        # 40aa34 <is_checker>
  4020f4:	74 41                	je     402137 <usage+0x51>
  4020f6:	bf 10 70 40 00       	mov    $0x407010,%edi
  4020fb:	b8 00 00 00 00       	mov    $0x0,%eax
  402100:	e8 cb ef ff ff       	callq  4010d0 <printf@plt>
  402105:	bf 48 70 40 00       	mov    $0x407048,%edi
  40210a:	e8 81 ef ff ff       	callq  401090 <puts@plt>
  40210f:	bf e8 71 40 00       	mov    $0x4071e8,%edi
  402114:	e8 77 ef ff ff       	callq  401090 <puts@plt>
  402119:	bf 70 70 40 00       	mov    $0x407070,%edi
  40211e:	e8 6d ef ff ff       	callq  401090 <puts@plt>
  402123:	bf 02 72 40 00       	mov    $0x407202,%edi
  402128:	e8 63 ef ff ff       	callq  401090 <puts@plt>
  40212d:	bf 00 00 00 00       	mov    $0x0,%edi
  402132:	e8 f9 f0 ff ff       	callq  401230 <exit@plt>
  402137:	bf 1e 72 40 00       	mov    $0x40721e,%edi
  40213c:	b8 00 00 00 00       	mov    $0x0,%eax
  402141:	e8 8a ef ff ff       	callq  4010d0 <printf@plt>
  402146:	bf 98 70 40 00       	mov    $0x407098,%edi
  40214b:	e8 40 ef ff ff       	callq  401090 <puts@plt>
  402150:	bf c0 70 40 00       	mov    $0x4070c0,%edi
  402155:	e8 36 ef ff ff       	callq  401090 <puts@plt>
  40215a:	bf 3c 72 40 00       	mov    $0x40723c,%edi
  40215f:	e8 2c ef ff ff       	callq  401090 <puts@plt>
  402164:	eb c7                	jmp    40212d <usage+0x47>

0000000000402166 <initialize_target>:
  402166:	55                   	push   %rbp
  402167:	53                   	push   %rbx
  402168:	48 81 ec 08 21 00 00 	sub    $0x2108,%rsp
  40216f:	89 f5                	mov    %esi,%ebp
  402171:	89 3d ad 88 00 00    	mov    %edi,0x88ad(%rip)        # 40aa24 <check_level>
  402177:	8b 3d eb 7f 00 00    	mov    0x7feb(%rip),%edi        # 40a168 <target_id>
  40217d:	e8 e4 40 00 00       	callq  406266 <gencookie>
  402182:	89 c7                	mov    %eax,%edi
  402184:	89 05 a6 88 00 00    	mov    %eax,0x88a6(%rip)        # 40aa30 <cookie>
  40218a:	e8 d7 40 00 00       	callq  406266 <gencookie>
  40218f:	89 05 97 88 00 00    	mov    %eax,0x8897(%rip)        # 40aa2c <authkey>
  402195:	8b 05 cd 7f 00 00    	mov    0x7fcd(%rip),%eax        # 40a168 <target_id>
  40219b:	8d 78 01             	lea    0x1(%rax),%edi
  40219e:	e8 ad ee ff ff       	callq  401050 <srandom@plt>
  4021a3:	e8 f8 ef ff ff       	callq  4011a0 <random@plt>
  4021a8:	89 c7                	mov    %eax,%edi
  4021aa:	e8 f3 05 00 00       	callq  4027a2 <scramble>
  4021af:	89 c3                	mov    %eax,%ebx
  4021b1:	85 ed                	test   %ebp,%ebp
  4021b3:	75 3d                	jne    4021f2 <initialize_target+0x8c>
  4021b5:	b8 00 00 00 00       	mov    $0x0,%eax
  4021ba:	01 d8                	add    %ebx,%eax
  4021bc:	0f b7 c0             	movzwl %ax,%eax
  4021bf:	8d 04 c5 00 01 00 00 	lea    0x100(,%rax,8),%eax
  4021c6:	89 c0                	mov    %eax,%eax
  4021c8:	48 89 05 c1 87 00 00 	mov    %rax,0x87c1(%rip)        # 40a990 <buf_offset>
  4021cf:	c6 05 4a 88 00 00 63 	movb   $0x63,0x884a(%rip)        # 40aa20 <target_prefix>
  4021d6:	83 3d ab 87 00 00 00 	cmpl   $0x0,0x87ab(%rip)        # 40a988 <notify>
  4021dd:	74 09                	je     4021e8 <initialize_target+0x82>
  4021df:	83 3d 4e 88 00 00 00 	cmpl   $0x0,0x884e(%rip)        # 40aa34 <is_checker>
  4021e6:	74 22                	je     40220a <initialize_target+0xa4>
  4021e8:	48 81 c4 08 21 00 00 	add    $0x2108,%rsp
  4021ef:	5b                   	pop    %rbx
  4021f0:	5d                   	pop    %rbp
  4021f1:	c3                   	retq   
  4021f2:	bf 00 00 00 00       	mov    $0x0,%edi
  4021f7:	e8 94 ef ff ff       	callq  401190 <time@plt>
  4021fc:	89 c7                	mov    %eax,%edi
  4021fe:	e8 4d ee ff ff       	callq  401050 <srandom@plt>
  402203:	e8 98 ef ff ff       	callq  4011a0 <random@plt>
  402208:	eb b0                	jmp    4021ba <initialize_target+0x54>
  40220a:	be 00 01 00 00       	mov    $0x100,%esi
  40220f:	48 89 e7             	mov    %rsp,%rdi
  402212:	e8 f9 ef ff ff       	callq  401210 <gethostname@plt>
  402217:	89 c5                	mov    %eax,%ebp
  402219:	85 c0                	test   %eax,%eax
  40221b:	75 23                	jne    402240 <initialize_target+0xda>
  40221d:	89 c3                	mov    %eax,%ebx
  40221f:	48 63 c3             	movslq %ebx,%rax
  402222:	48 8b 3c c5 80 a1 40 	mov    0x40a180(,%rax,8),%rdi
  402229:	00 
  40222a:	48 85 ff             	test   %rdi,%rdi
  40222d:	74 2a                	je     402259 <initialize_target+0xf3>
  40222f:	48 89 e6             	mov    %rsp,%rsi
  402232:	e8 f9 ed ff ff       	callq  401030 <strcasecmp@plt>
  402237:	85 c0                	test   %eax,%eax
  402239:	74 19                	je     402254 <initialize_target+0xee>
  40223b:	83 c3 01             	add    $0x1,%ebx
  40223e:	eb df                	jmp    40221f <initialize_target+0xb9>
  402240:	bf f0 70 40 00       	mov    $0x4070f0,%edi
  402245:	e8 46 ee ff ff       	callq  401090 <puts@plt>
  40224a:	bf 08 00 00 00       	mov    $0x8,%edi
  40224f:	e8 dc ef ff ff       	callq  401230 <exit@plt>
  402254:	bd 01 00 00 00       	mov    $0x1,%ebp
  402259:	85 ed                	test   %ebp,%ebp
  40225b:	74 36                	je     402293 <initialize_target+0x12d>
  40225d:	48 8d bc 24 00 01 00 	lea    0x100(%rsp),%rdi
  402264:	00 
  402265:	e8 4d 3d 00 00       	callq  405fb7 <init_driver>
  40226a:	85 c0                	test   %eax,%eax
  40226c:	0f 89 76 ff ff ff    	jns    4021e8 <initialize_target+0x82>
  402272:	48 8d b4 24 00 01 00 	lea    0x100(%rsp),%rsi
  402279:	00 
  40227a:	bf 68 71 40 00       	mov    $0x407168,%edi
  40227f:	b8 00 00 00 00       	mov    $0x0,%eax
  402284:	e8 47 ee ff ff       	callq  4010d0 <printf@plt>
  402289:	bf 08 00 00 00       	mov    $0x8,%edi
  40228e:	e8 9d ef ff ff       	callq  401230 <exit@plt>
  402293:	48 89 e6             	mov    %rsp,%rsi
  402296:	bf 28 71 40 00       	mov    $0x407128,%edi
  40229b:	b8 00 00 00 00       	mov    $0x0,%eax
  4022a0:	e8 2b ee ff ff       	callq  4010d0 <printf@plt>
  4022a5:	bf 08 00 00 00       	mov    $0x8,%edi
  4022aa:	e8 81 ef ff ff       	callq  401230 <exit@plt>

00000000004022af <install_syscall_filter>:
  4022af:	53                   	push   %rbx
  4022b0:	48 81 ec c0 00 00 00 	sub    $0xc0,%rsp
  4022b7:	66 c7 44 24 10 20 00 	movw   $0x20,0x10(%rsp)
  4022be:	c6 44 24 12 00       	movb   $0x0,0x12(%rsp)
  4022c3:	c6 44 24 13 00       	movb   $0x0,0x13(%rsp)
  4022c8:	c7 44 24 14 04 00 00 	movl   $0x4,0x14(%rsp)
  4022cf:	00 
  4022d0:	66 c7 44 24 18 15 00 	movw   $0x15,0x18(%rsp)
  4022d7:	c6 44 24 1a 01       	movb   $0x1,0x1a(%rsp)
  4022dc:	c6 44 24 1b 00       	movb   $0x0,0x1b(%rsp)
  4022e1:	c7 44 24 1c 3e 00 00 	movl   $0xc000003e,0x1c(%rsp)
  4022e8:	c0 
  4022e9:	66 c7 44 24 20 06 00 	movw   $0x6,0x20(%rsp)
  4022f0:	c6 44 24 22 00       	movb   $0x0,0x22(%rsp)
  4022f5:	c6 44 24 23 00       	movb   $0x0,0x23(%rsp)
  4022fa:	c7 44 24 24 00 00 00 	movl   $0x0,0x24(%rsp)
  402301:	00 
  402302:	66 c7 44 24 28 20 00 	movw   $0x20,0x28(%rsp)
  402309:	c6 44 24 2a 00       	movb   $0x0,0x2a(%rsp)
  40230e:	c6 44 24 2b 00       	movb   $0x0,0x2b(%rsp)
  402313:	c7 44 24 2c 00 00 00 	movl   $0x0,0x2c(%rsp)
  40231a:	00 
  40231b:	66 c7 44 24 30 15 00 	movw   $0x15,0x30(%rsp)
  402322:	c6 44 24 32 00       	movb   $0x0,0x32(%rsp)
  402327:	c6 44 24 33 01       	movb   $0x1,0x33(%rsp)
  40232c:	c7 44 24 34 0f 00 00 	movl   $0xf,0x34(%rsp)
  402333:	00 
  402334:	66 c7 44 24 38 06 00 	movw   $0x6,0x38(%rsp)
  40233b:	c6 44 24 3a 00       	movb   $0x0,0x3a(%rsp)
  402340:	c6 44 24 3b 00       	movb   $0x0,0x3b(%rsp)
  402345:	c7 44 24 3c 00 00 ff 	movl   $0x7fff0000,0x3c(%rsp)
  40234c:	7f 
  40234d:	66 c7 44 24 40 15 00 	movw   $0x15,0x40(%rsp)
  402354:	c6 44 24 42 00       	movb   $0x0,0x42(%rsp)
  402359:	c6 44 24 43 01       	movb   $0x1,0x43(%rsp)
  40235e:	c7 44 24 44 e7 00 00 	movl   $0xe7,0x44(%rsp)
  402365:	00 
  402366:	66 c7 44 24 48 06 00 	movw   $0x6,0x48(%rsp)
  40236d:	c6 44 24 4a 00       	movb   $0x0,0x4a(%rsp)
  402372:	c6 44 24 4b 00       	movb   $0x0,0x4b(%rsp)
  402377:	c7 44 24 4c 00 00 ff 	movl   $0x7fff0000,0x4c(%rsp)
  40237e:	7f 
  40237f:	66 c7 44 24 50 15 00 	movw   $0x15,0x50(%rsp)
  402386:	c6 44 24 52 00       	movb   $0x0,0x52(%rsp)
  40238b:	c6 44 24 53 01       	movb   $0x1,0x53(%rsp)
  402390:	c7 44 24 54 3c 00 00 	movl   $0x3c,0x54(%rsp)
  402397:	00 
  402398:	66 c7 44 24 58 06 00 	movw   $0x6,0x58(%rsp)
  40239f:	c6 44 24 5a 00       	movb   $0x0,0x5a(%rsp)
  4023a4:	c6 44 24 5b 00       	movb   $0x0,0x5b(%rsp)
  4023a9:	c7 44 24 5c 00 00 ff 	movl   $0x7fff0000,0x5c(%rsp)
  4023b0:	7f 
  4023b1:	66 c7 44 24 60 15 00 	movw   $0x15,0x60(%rsp)
  4023b8:	c6 44 24 62 00       	movb   $0x0,0x62(%rsp)
  4023bd:	c6 44 24 63 01       	movb   $0x1,0x63(%rsp)
  4023c2:	c7 44 24 64 05 00 00 	movl   $0x5,0x64(%rsp)
  4023c9:	00 
  4023ca:	66 c7 44 24 68 06 00 	movw   $0x6,0x68(%rsp)
  4023d1:	c6 44 24 6a 00       	movb   $0x0,0x6a(%rsp)
  4023d6:	c6 44 24 6b 00       	movb   $0x0,0x6b(%rsp)
  4023db:	c7 44 24 6c 00 00 ff 	movl   $0x7fff0000,0x6c(%rsp)
  4023e2:	7f 
  4023e3:	66 c7 44 24 70 15 00 	movw   $0x15,0x70(%rsp)
  4023ea:	c6 44 24 72 00       	movb   $0x0,0x72(%rsp)
  4023ef:	c6 44 24 73 01       	movb   $0x1,0x73(%rsp)
  4023f4:	c7 44 24 74 06 01 00 	movl   $0x106,0x74(%rsp)
  4023fb:	00 
  4023fc:	66 c7 44 24 78 06 00 	movw   $0x6,0x78(%rsp)
  402403:	c6 44 24 7a 00       	movb   $0x0,0x7a(%rsp)
  402408:	c6 44 24 7b 00       	movb   $0x0,0x7b(%rsp)
  40240d:	c7 44 24 7c 00 00 ff 	movl   $0x7fff0000,0x7c(%rsp)
  402414:	7f 
  402415:	66 c7 84 24 80 00 00 	movw   $0x15,0x80(%rsp)
  40241c:	00 15 00 
  40241f:	c6 84 24 82 00 00 00 	movb   $0x0,0x82(%rsp)
  402426:	00 
  402427:	c6 84 24 83 00 00 00 	movb   $0x1,0x83(%rsp)
  40242e:	01 
  40242f:	c7 84 24 84 00 00 00 	movl   $0x9,0x84(%rsp)
  402436:	09 00 00 00 
  40243a:	66 c7 84 24 88 00 00 	movw   $0x6,0x88(%rsp)
  402441:	00 06 00 
  402444:	c6 84 24 8a 00 00 00 	movb   $0x0,0x8a(%rsp)
  40244b:	00 
  40244c:	c6 84 24 8b 00 00 00 	movb   $0x0,0x8b(%rsp)
  402453:	00 
  402454:	c7 84 24 8c 00 00 00 	movl   $0x7fff0000,0x8c(%rsp)
  40245b:	00 00 ff 7f 
  40245f:	66 c7 84 24 90 00 00 	movw   $0x15,0x90(%rsp)
  402466:	00 15 00 
  402469:	c6 84 24 92 00 00 00 	movb   $0x0,0x92(%rsp)
  402470:	00 
  402471:	c6 84 24 93 00 00 00 	movb   $0x1,0x93(%rsp)
  402478:	01 
  402479:	c7 84 24 94 00 00 00 	movl   $0x0,0x94(%rsp)
  402480:	00 00 00 00 
  402484:	66 c7 84 24 98 00 00 	movw   $0x6,0x98(%rsp)
  40248b:	00 06 00 
  40248e:	c6 84 24 9a 00 00 00 	movb   $0x0,0x9a(%rsp)
  402495:	00 
  402496:	c6 84 24 9b 00 00 00 	movb   $0x0,0x9b(%rsp)
  40249d:	00 
  40249e:	c7 84 24 9c 00 00 00 	movl   $0x7fff0000,0x9c(%rsp)
  4024a5:	00 00 ff 7f 
  4024a9:	66 c7 84 24 a0 00 00 	movw   $0x15,0xa0(%rsp)
  4024b0:	00 15 00 
  4024b3:	c6 84 24 a2 00 00 00 	movb   $0x0,0xa2(%rsp)
  4024ba:	00 
  4024bb:	c6 84 24 a3 00 00 00 	movb   $0x1,0xa3(%rsp)
  4024c2:	01 
  4024c3:	c7 84 24 a4 00 00 00 	movl   $0x1,0xa4(%rsp)
  4024ca:	01 00 00 00 
  4024ce:	66 c7 84 24 a8 00 00 	movw   $0x6,0xa8(%rsp)
  4024d5:	00 06 00 
  4024d8:	c6 84 24 aa 00 00 00 	movb   $0x0,0xaa(%rsp)
  4024df:	00 
  4024e0:	c6 84 24 ab 00 00 00 	movb   $0x0,0xab(%rsp)
  4024e7:	00 
  4024e8:	c7 84 24 ac 00 00 00 	movl   $0x7fff0000,0xac(%rsp)
  4024ef:	00 00 ff 7f 
  4024f3:	66 c7 84 24 b0 00 00 	movw   $0x6,0xb0(%rsp)
  4024fa:	00 06 00 
  4024fd:	c6 84 24 b2 00 00 00 	movb   $0x0,0xb2(%rsp)
  402504:	00 
  402505:	c6 84 24 b3 00 00 00 	movb   $0x0,0xb3(%rsp)
  40250c:	00 
  40250d:	c7 84 24 b4 00 00 00 	movl   $0x0,0xb4(%rsp)
  402514:	00 00 00 00 
  402518:	66 c7 04 24 15 00    	movw   $0x15,(%rsp)
  40251e:	48 8d 44 24 10       	lea    0x10(%rsp),%rax
  402523:	48 89 44 24 08       	mov    %rax,0x8(%rsp)
  402528:	85 ff                	test   %edi,%edi
  40252a:	75 0d                	jne    402539 <install_syscall_filter+0x28a>
  40252c:	89 fb                	mov    %edi,%ebx
  40252e:	89 d8                	mov    %ebx,%eax
  402530:	48 81 c4 c0 00 00 00 	add    $0xc0,%rsp
  402537:	5b                   	pop    %rbx
  402538:	c3                   	retq   
  402539:	41 b8 00 00 00 00    	mov    $0x0,%r8d
  40253f:	b9 00 00 00 00       	mov    $0x0,%ecx
  402544:	ba 00 00 00 00       	mov    $0x0,%edx
  402549:	be 01 00 00 00       	mov    $0x1,%esi
  40254e:	bf 26 00 00 00       	mov    $0x26,%edi
  402553:	b8 00 00 00 00       	mov    $0x0,%eax
  402558:	e8 23 ec ff ff       	callq  401180 <prctl@plt>
  40255d:	85 c0                	test   %eax,%eax
  40255f:	75 29                	jne    40258a <install_syscall_filter+0x2db>
  402561:	48 89 e2             	mov    %rsp,%rdx
  402564:	be 02 00 00 00       	mov    $0x2,%esi
  402569:	bf 16 00 00 00       	mov    $0x16,%edi
  40256e:	b8 00 00 00 00       	mov    $0x0,%eax
  402573:	e8 08 ec ff ff       	callq  401180 <prctl@plt>
  402578:	89 c3                	mov    %eax,%ebx
  40257a:	85 c0                	test   %eax,%eax
  40257c:	75 27                	jne    4025a5 <install_syscall_filter+0x2f6>
  40257e:	bf 78 72 40 00       	mov    $0x407278,%edi
  402583:	e8 08 eb ff ff       	callq  401090 <puts@plt>
  402588:	eb a4                	jmp    40252e <install_syscall_filter+0x27f>
  40258a:	bf 55 72 40 00       	mov    $0x407255,%edi
  40258f:	e8 4c ec ff ff       	callq  4011e0 <perror@plt>
  402594:	e8 a7 ea ff ff       	callq  401040 <__errno_location@plt>
  402599:	83 38 16             	cmpl   $0x16,(%rax)
  40259c:	74 13                	je     4025b1 <install_syscall_filter+0x302>
  40259e:	bb 01 00 00 00       	mov    $0x1,%ebx
  4025a3:	eb 89                	jmp    40252e <install_syscall_filter+0x27f>
  4025a5:	bf 69 72 40 00       	mov    $0x407269,%edi
  4025aa:	e8 31 ec ff ff       	callq  4011e0 <perror@plt>
  4025af:	eb e3                	jmp    402594 <install_syscall_filter+0x2e5>
  4025b1:	48 8b 0d 28 84 00 00 	mov    0x8428(%rip),%rcx        # 40a9e0 <stderr@@GLIBC_2.2.5>
  4025b8:	ba 24 00 00 00       	mov    $0x24,%edx
  4025bd:	be 01 00 00 00       	mov    $0x1,%esi
  4025c2:	bf 90 71 40 00       	mov    $0x407190,%edi
  4025c7:	e8 84 ec ff ff       	callq  401250 <fwrite@plt>
  4025cc:	bb 01 00 00 00       	mov    $0x1,%ebx
  4025d1:	e9 58 ff ff ff       	jmpq   40252e <install_syscall_filter+0x27f>

00000000004025d6 <main>:
  4025d6:	41 56                	push   %r14
  4025d8:	41 55                	push   %r13
  4025da:	41 54                	push   %r12
  4025dc:	55                   	push   %rbp
  4025dd:	53                   	push   %rbx
  4025de:	89 fd                	mov    %edi,%ebp
  4025e0:	48 89 f3             	mov    %rsi,%rbx
  4025e3:	be 3c 54 40 00       	mov    $0x40543c,%esi
  4025e8:	bf 0b 00 00 00       	mov    $0xb,%edi
  4025ed:	e8 3e eb ff ff       	callq  401130 <signal@plt>
  4025f2:	be ee 53 40 00       	mov    $0x4053ee,%esi
  4025f7:	bf 07 00 00 00       	mov    $0x7,%edi
  4025fc:	e8 2f eb ff ff       	callq  401130 <signal@plt>
  402601:	be 8a 54 40 00       	mov    $0x40548a,%esi
  402606:	bf 04 00 00 00       	mov    $0x4,%edi
  40260b:	e8 20 eb ff ff       	callq  401130 <signal@plt>
  402610:	83 3d 1d 84 00 00 00 	cmpl   $0x0,0x841d(%rip)        # 40aa34 <is_checker>
  402617:	75 25                	jne    40263e <main+0x68>
  402619:	41 bc 91 72 40 00    	mov    $0x407291,%r12d
  40261f:	48 8b 05 7a 83 00 00 	mov    0x837a(%rip),%rax        # 40a9a0 <stdin@@GLIBC_2.2.5>
  402626:	48 89 05 eb 83 00 00 	mov    %rax,0x83eb(%rip)        # 40aa18 <infile>
  40262d:	41 bd 00 00 00 00    	mov    $0x0,%r13d
  402633:	41 be 00 00 00 00    	mov    $0x0,%r14d
  402639:	e9 81 00 00 00       	jmpq   4026bf <main+0xe9>
  40263e:	be d8 54 40 00       	mov    $0x4054d8,%esi
  402643:	bf 0e 00 00 00       	mov    $0xe,%edi
  402648:	e8 e3 ea ff ff       	callq  401130 <signal@plt>
  40264d:	bf 05 00 00 00       	mov    $0x5,%edi
  402652:	e8 99 ea ff ff       	callq  4010f0 <alarm@plt>
  402657:	41 bc 96 72 40 00    	mov    $0x407296,%r12d
  40265d:	eb c0                	jmp    40261f <main+0x49>
  40265f:	48 8b 3b             	mov    (%rbx),%rdi
  402662:	e8 7f fa ff ff       	callq  4020e6 <usage>
  402667:	be 7b 83 40 00       	mov    $0x40837b,%esi
  40266c:	48 8b 3d 4d 83 00 00 	mov    0x834d(%rip),%rdi        # 40a9c0 <optarg@@GLIBC_2.2.5>
  402673:	e8 58 eb ff ff       	callq  4011d0 <fopen@plt>
  402678:	48 89 05 99 83 00 00 	mov    %rax,0x8399(%rip)        # 40aa18 <infile>
  40267f:	48 85 c0             	test   %rax,%rax
  402682:	75 3b                	jne    4026bf <main+0xe9>
  402684:	48 8b 15 35 83 00 00 	mov    0x8335(%rip),%rdx        # 40a9c0 <optarg@@GLIBC_2.2.5>
  40268b:	be 9e 72 40 00       	mov    $0x40729e,%esi
  402690:	48 8b 3d 49 83 00 00 	mov    0x8349(%rip),%rdi        # 40a9e0 <stderr@@GLIBC_2.2.5>
  402697:	e8 b4 ea ff ff       	callq  401150 <fprintf@plt>
  40269c:	bb 01 00 00 00       	mov    $0x1,%ebx
  4026a1:	e9 c5 00 00 00       	jmpq   40276b <main+0x195>
  4026a6:	ba 10 00 00 00       	mov    $0x10,%edx
  4026ab:	be 00 00 00 00       	mov    $0x0,%esi
  4026b0:	48 8b 3d 09 83 00 00 	mov    0x8309(%rip),%rdi        # 40a9c0 <optarg@@GLIBC_2.2.5>
  4026b7:	e8 44 eb ff ff       	callq  401200 <strtoul@plt>
  4026bc:	41 89 c6             	mov    %eax,%r14d
  4026bf:	4c 89 e2             	mov    %r12,%rdx
  4026c2:	48 89 de             	mov    %rbx,%rsi
  4026c5:	89 ef                	mov    %ebp,%edi
  4026c7:	e8 24 eb ff ff       	callq  4011f0 <getopt@plt>
  4026cc:	3c ff                	cmp    $0xff,%al
  4026ce:	74 52                	je     402722 <main+0x14c>
  4026d0:	0f be f0             	movsbl %al,%esi
  4026d3:	83 e8 61             	sub    $0x61,%eax
  4026d6:	3c 10                	cmp    $0x10,%al
  4026d8:	77 31                	ja     40270b <main+0x135>
  4026da:	0f b6 c0             	movzbl %al,%eax
  4026dd:	ff 24 c5 e0 72 40 00 	jmpq   *0x4072e0(,%rax,8)
  4026e4:	ba 0a 00 00 00       	mov    $0xa,%edx
  4026e9:	be 00 00 00 00       	mov    $0x0,%esi
  4026ee:	48 8b 3d cb 82 00 00 	mov    0x82cb(%rip),%rdi        # 40a9c0 <optarg@@GLIBC_2.2.5>
  4026f5:	e8 66 ea ff ff       	callq  401160 <strtol@plt>
  4026fa:	41 89 c5             	mov    %eax,%r13d
  4026fd:	eb c0                	jmp    4026bf <main+0xe9>
  4026ff:	c7 05 7f 82 00 00 00 	movl   $0x0,0x827f(%rip)        # 40a988 <notify>
  402706:	00 00 00 
  402709:	eb b4                	jmp    4026bf <main+0xe9>
  40270b:	bf bb 72 40 00       	mov    $0x4072bb,%edi
  402710:	b8 00 00 00 00       	mov    $0x0,%eax
  402715:	e8 b6 e9 ff ff       	callq  4010d0 <printf@plt>
  40271a:	48 8b 3b             	mov    (%rbx),%rdi
  40271d:	e8 c4 f9 ff ff       	callq  4020e6 <usage>
  402722:	be 00 00 00 00       	mov    $0x0,%esi
  402727:	44 89 ef             	mov    %r13d,%edi
  40272a:	e8 37 fa ff ff       	callq  402166 <initialize_target>
  40272f:	83 3d fe 82 00 00 00 	cmpl   $0x0,0x82fe(%rip)        # 40aa34 <is_checker>
  402736:	74 09                	je     402741 <main+0x16b>
  402738:	44 39 35 ed 82 00 00 	cmp    %r14d,0x82ed(%rip)        # 40aa2c <authkey>
  40273f:	75 35                	jne    402776 <main+0x1a0>
  402741:	8b 35 e9 82 00 00    	mov    0x82e9(%rip),%esi        # 40aa30 <cookie>
  402747:	bf ce 72 40 00       	mov    $0x4072ce,%edi
  40274c:	b8 00 00 00 00       	mov    $0x0,%eax
  402751:	e8 7a e9 ff ff       	callq  4010d0 <printf@plt>
  402756:	bf 00 00 00 00       	mov    $0x0,%edi
  40275b:	e8 4f fb ff ff       	callq  4022af <install_syscall_filter>
  402760:	89 c3                	mov    %eax,%ebx
  402762:	85 c0                	test   %eax,%eax
  402764:	74 2e                	je     402794 <main+0x1be>
  402766:	bb 01 00 00 00       	mov    $0x1,%ebx
  40276b:	89 d8                	mov    %ebx,%eax
  40276d:	5b                   	pop    %rbx
  40276e:	5d                   	pop    %rbp
  40276f:	41 5c                	pop    %r12
  402771:	41 5d                	pop    %r13
  402773:	41 5e                	pop    %r14
  402775:	c3                   	retq   
  402776:	44 89 f6             	mov    %r14d,%esi
  402779:	bf b8 71 40 00       	mov    $0x4071b8,%edi
  40277e:	b8 00 00 00 00       	mov    $0x0,%eax
  402783:	e8 48 e9 ff ff       	callq  4010d0 <printf@plt>
  402788:	b8 00 00 00 00       	mov    $0x0,%eax
  40278d:	e8 60 29 00 00       	callq  4050f2 <check_fail>
  402792:	eb ad                	jmp    402741 <main+0x16b>
  402794:	48 8b 3d f5 81 00 00 	mov    0x81f5(%rip),%rdi        # 40a990 <buf_offset>
  40279b:	e8 09 2e 00 00       	callq  4055a9 <stable_launch>
  4027a0:	eb c9                	jmp    40276b <main+0x195>

00000000004027a2 <scramble>:
  4027a2:	b8 00 00 00 00       	mov    $0x0,%eax
  4027a7:	eb 11                	jmp    4027ba <scramble+0x18>
  4027a9:	69 d0 98 45 00 00    	imul   $0x4598,%eax,%edx
  4027af:	01 fa                	add    %edi,%edx
  4027b1:	89 c1                	mov    %eax,%ecx
  4027b3:	89 54 8c c8          	mov    %edx,-0x38(%rsp,%rcx,4)
  4027b7:	83 c0 01             	add    $0x1,%eax
  4027ba:	83 f8 09             	cmp    $0x9,%eax
  4027bd:	76 ea                	jbe    4027a9 <scramble+0x7>
  4027bf:	8b 44 24 ec          	mov    -0x14(%rsp),%eax
  4027c3:	69 c0 22 1a 00 00    	imul   $0x1a22,%eax,%eax
  4027c9:	89 44 24 ec          	mov    %eax,-0x14(%rsp)
  4027cd:	8b 44 24 d4          	mov    -0x2c(%rsp),%eax
  4027d1:	69 c0 57 5a 00 00    	imul   $0x5a57,%eax,%eax
  4027d7:	89 44 24 d4          	mov    %eax,-0x2c(%rsp)
  4027db:	8b 44 24 cc          	mov    -0x34(%rsp),%eax
  4027df:	69 c0 de 08 00 00    	imul   $0x8de,%eax,%eax
  4027e5:	89 44 24 cc          	mov    %eax,-0x34(%rsp)
  4027e9:	8b 44 24 d4          	mov    -0x2c(%rsp),%eax
  4027ed:	69 c0 b9 11 00 00    	imul   $0x11b9,%eax,%eax
  4027f3:	89 44 24 d4          	mov    %eax,-0x2c(%rsp)
  4027f7:	8b 44 24 cc          	mov    -0x34(%rsp),%eax
  4027fb:	69 c0 f7 9c 00 00    	imul   $0x9cf7,%eax,%eax
  402801:	89 44 24 cc          	mov    %eax,-0x34(%rsp)
  402805:	8b 44 24 e4          	mov    -0x1c(%rsp),%eax
  402809:	69 c0 64 35 00 00    	imul   $0x3564,%eax,%eax
  40280f:	89 44 24 e4          	mov    %eax,-0x1c(%rsp)
  402813:	8b 44 24 d8          	mov    -0x28(%rsp),%eax
  402817:	69 c0 7f af 00 00    	imul   $0xaf7f,%eax,%eax
  40281d:	89 44 24 d8          	mov    %eax,-0x28(%rsp)
  402821:	8b 44 24 e8          	mov    -0x18(%rsp),%eax
  402825:	69 c0 d4 f2 00 00    	imul   $0xf2d4,%eax,%eax
  40282b:	89 44 24 e8          	mov    %eax,-0x18(%rsp)
  40282f:	8b 44 24 e4          	mov    -0x1c(%rsp),%eax
  402833:	69 c0 c1 5c 00 00    	imul   $0x5cc1,%eax,%eax
  402839:	89 44 24 e4          	mov    %eax,-0x1c(%rsp)
  40283d:	8b 44 24 e8          	mov    -0x18(%rsp),%eax
  402841:	69 c0 51 0e 00 00    	imul   $0xe51,%eax,%eax
  402847:	89 44 24 e8          	mov    %eax,-0x18(%rsp)
  40284b:	8b 44 24 d0          	mov    -0x30(%rsp),%eax
  40284f:	69 c0 69 a4 00 00    	imul   $0xa469,%eax,%eax
  402855:	89 44 24 d0          	mov    %eax,-0x30(%rsp)
  402859:	8b 44 24 e4          	mov    -0x1c(%rsp),%eax
  40285d:	69 c0 d4 28 00 00    	imul   $0x28d4,%eax,%eax
  402863:	89 44 24 e4          	mov    %eax,-0x1c(%rsp)
  402867:	8b 44 24 e4          	mov    -0x1c(%rsp),%eax
  40286b:	69 c0 36 28 00 00    	imul   $0x2836,%eax,%eax
  402871:	89 44 24 e4          	mov    %eax,-0x1c(%rsp)
  402875:	8b 44 24 d4          	mov    -0x2c(%rsp),%eax
  402879:	69 c0 57 9d 00 00    	imul   $0x9d57,%eax,%eax
  40287f:	89 44 24 d4          	mov    %eax,-0x2c(%rsp)
  402883:	8b 44 24 d0          	mov    -0x30(%rsp),%eax
  402887:	69 c0 91 13 00 00    	imul   $0x1391,%eax,%eax
  40288d:	89 44 24 d0          	mov    %eax,-0x30(%rsp)
  402891:	8b 44 24 e4          	mov    -0x1c(%rsp),%eax
  402895:	69 c0 6c a4 00 00    	imul   $0xa46c,%eax,%eax
  40289b:	89 44 24 e4          	mov    %eax,-0x1c(%rsp)
  40289f:	8b 44 24 d4          	mov    -0x2c(%rsp),%eax
  4028a3:	69 c0 4d fb 00 00    	imul   $0xfb4d,%eax,%eax
  4028a9:	89 44 24 d4          	mov    %eax,-0x2c(%rsp)
  4028ad:	8b 44 24 dc          	mov    -0x24(%rsp),%eax
  4028b1:	69 c0 81 86 00 00    	imul   $0x8681,%eax,%eax
  4028b7:	89 44 24 dc          	mov    %eax,-0x24(%rsp)
  4028bb:	8b 44 24 c8          	mov    -0x38(%rsp),%eax
  4028bf:	69 c0 99 c8 00 00    	imul   $0xc899,%eax,%eax
  4028c5:	89 44 24 c8          	mov    %eax,-0x38(%rsp)
  4028c9:	8b 44 24 e0          	mov    -0x20(%rsp),%eax
  4028cd:	69 c0 ac 9e 00 00    	imul   $0x9eac,%eax,%eax
  4028d3:	89 44 24 e0          	mov    %eax,-0x20(%rsp)
  4028d7:	8b 44 24 e4          	mov    -0x1c(%rsp),%eax
  4028db:	69 c0 af 84 00 00    	imul   $0x84af,%eax,%eax
  4028e1:	89 44 24 e4          	mov    %eax,-0x1c(%rsp)
  4028e5:	8b 44 24 c8          	mov    -0x38(%rsp),%eax
  4028e9:	69 c0 97 9e 00 00    	imul   $0x9e97,%eax,%eax
  4028ef:	89 44 24 c8          	mov    %eax,-0x38(%rsp)
  4028f3:	8b 44 24 e0          	mov    -0x20(%rsp),%eax
  4028f7:	69 c0 07 8d 00 00    	imul   $0x8d07,%eax,%eax
  4028fd:	89 44 24 e0          	mov    %eax,-0x20(%rsp)
  402901:	8b 44 24 e8          	mov    -0x18(%rsp),%eax
  402905:	69 c0 c5 c1 00 00    	imul   $0xc1c5,%eax,%eax
  40290b:	89 44 24 e8          	mov    %eax,-0x18(%rsp)
  40290f:	8b 44 24 e0          	mov    -0x20(%rsp),%eax
  402913:	69 c0 81 21 00 00    	imul   $0x2181,%eax,%eax
  402919:	89 44 24 e0          	mov    %eax,-0x20(%rsp)
  40291d:	8b 44 24 d0          	mov    -0x30(%rsp),%eax
  402921:	69 c0 f7 d3 00 00    	imul   $0xd3f7,%eax,%eax
  402927:	89 44 24 d0          	mov    %eax,-0x30(%rsp)
  40292b:	8b 44 24 ec          	mov    -0x14(%rsp),%eax
  40292f:	69 c0 d4 df 00 00    	imul   $0xdfd4,%eax,%eax
  402935:	89 44 24 ec          	mov    %eax,-0x14(%rsp)
  402939:	8b 44 24 d8          	mov    -0x28(%rsp),%eax
  40293d:	69 c0 12 aa 00 00    	imul   $0xaa12,%eax,%eax
  402943:	89 44 24 d8          	mov    %eax,-0x28(%rsp)
  402947:	8b 44 24 e4          	mov    -0x1c(%rsp),%eax
  40294b:	69 c0 15 e9 00 00    	imul   $0xe915,%eax,%eax
  402951:	89 44 24 e4          	mov    %eax,-0x1c(%rsp)
  402955:	8b 44 24 d8          	mov    -0x28(%rsp),%eax
  402959:	69 c0 dd 66 00 00    	imul   $0x66dd,%eax,%eax
  40295f:	89 44 24 d8          	mov    %eax,-0x28(%rsp)
  402963:	8b 44 24 cc          	mov    -0x34(%rsp),%eax
  402967:	69 c0 39 28 00 00    	imul   $0x2839,%eax,%eax
  40296d:	89 44 24 cc          	mov    %eax,-0x34(%rsp)
  402971:	8b 44 24 d4          	mov    -0x2c(%rsp),%eax
  402975:	69 c0 59 2a 00 00    	imul   $0x2a59,%eax,%eax
  40297b:	89 44 24 d4          	mov    %eax,-0x2c(%rsp)
  40297f:	8b 44 24 e0          	mov    -0x20(%rsp),%eax
  402983:	69 c0 0d 0a 00 00    	imul   $0xa0d,%eax,%eax
  402989:	89 44 24 e0          	mov    %eax,-0x20(%rsp)
  40298d:	8b 44 24 d8          	mov    -0x28(%rsp),%eax
  402991:	69 c0 b2 27 00 00    	imul   $0x27b2,%eax,%eax
  402997:	89 44 24 d8          	mov    %eax,-0x28(%rsp)
  40299b:	8b 44 24 ec          	mov    -0x14(%rsp),%eax
  40299f:	69 c0 15 49 00 00    	imul   $0x4915,%eax,%eax
  4029a5:	89 44 24 ec          	mov    %eax,-0x14(%rsp)
  4029a9:	8b 44 24 d0          	mov    -0x30(%rsp),%eax
  4029ad:	69 c0 36 38 00 00    	imul   $0x3836,%eax,%eax
  4029b3:	89 44 24 d0          	mov    %eax,-0x30(%rsp)
  4029b7:	8b 44 24 e0          	mov    -0x20(%rsp),%eax
  4029bb:	69 c0 70 9a 00 00    	imul   $0x9a70,%eax,%eax
  4029c1:	89 44 24 e0          	mov    %eax,-0x20(%rsp)
  4029c5:	8b 44 24 cc          	mov    -0x34(%rsp),%eax
  4029c9:	69 c0 f3 01 00 00    	imul   $0x1f3,%eax,%eax
  4029cf:	89 44 24 cc          	mov    %eax,-0x34(%rsp)
  4029d3:	8b 44 24 d8          	mov    -0x28(%rsp),%eax
  4029d7:	69 c0 3a 68 00 00    	imul   $0x683a,%eax,%eax
  4029dd:	89 44 24 d8          	mov    %eax,-0x28(%rsp)
  4029e1:	8b 44 24 e4          	mov    -0x1c(%rsp),%eax
  4029e5:	69 c0 3f 11 00 00    	imul   $0x113f,%eax,%eax
  4029eb:	89 44 24 e4          	mov    %eax,-0x1c(%rsp)
  4029ef:	8b 44 24 c8          	mov    -0x38(%rsp),%eax
  4029f3:	69 c0 ce 93 00 00    	imul   $0x93ce,%eax,%eax
  4029f9:	89 44 24 c8          	mov    %eax,-0x38(%rsp)
  4029fd:	8b 44 24 c8          	mov    -0x38(%rsp),%eax
  402a01:	69 c0 a6 4f 00 00    	imul   $0x4fa6,%eax,%eax
  402a07:	89 44 24 c8          	mov    %eax,-0x38(%rsp)
  402a0b:	8b 44 24 d8          	mov    -0x28(%rsp),%eax
  402a0f:	69 c0 02 e2 00 00    	imul   $0xe202,%eax,%eax
  402a15:	89 44 24 d8          	mov    %eax,-0x28(%rsp)
  402a19:	8b 44 24 cc          	mov    -0x34(%rsp),%eax
  402a1d:	69 c0 ac 7b 00 00    	imul   $0x7bac,%eax,%eax
  402a23:	89 44 24 cc          	mov    %eax,-0x34(%rsp)
  402a27:	8b 44 24 dc          	mov    -0x24(%rsp),%eax
  402a2b:	69 c0 21 41 00 00    	imul   $0x4121,%eax,%eax
  402a31:	89 44 24 dc          	mov    %eax,-0x24(%rsp)
  402a35:	8b 44 24 d4          	mov    -0x2c(%rsp),%eax
  402a39:	69 c0 bd c7 00 00    	imul   $0xc7bd,%eax,%eax
  402a3f:	89 44 24 d4          	mov    %eax,-0x2c(%rsp)
  402a43:	8b 44 24 c8          	mov    -0x38(%rsp),%eax
  402a47:	69 c0 d3 ed 00 00    	imul   $0xedd3,%eax,%eax
  402a4d:	89 44 24 c8          	mov    %eax,-0x38(%rsp)
  402a51:	8b 44 24 e0          	mov    -0x20(%rsp),%eax
  402a55:	69 c0 e2 8c 00 00    	imul   $0x8ce2,%eax,%eax
  402a5b:	89 44 24 e0          	mov    %eax,-0x20(%rsp)
  402a5f:	8b 44 24 d8          	mov    -0x28(%rsp),%eax
  402a63:	69 c0 f1 a2 00 00    	imul   $0xa2f1,%eax,%eax
  402a69:	89 44 24 d8          	mov    %eax,-0x28(%rsp)
  402a6d:	8b 44 24 e0          	mov    -0x20(%rsp),%eax
  402a71:	69 c0 86 ca 00 00    	imul   $0xca86,%eax,%eax
  402a77:	89 44 24 e0          	mov    %eax,-0x20(%rsp)
  402a7b:	8b 44 24 d0          	mov    -0x30(%rsp),%eax
  402a7f:	69 c0 f3 7a 00 00    	imul   $0x7af3,%eax,%eax
  402a85:	89 44 24 d0          	mov    %eax,-0x30(%rsp)
  402a89:	8b 44 24 dc          	mov    -0x24(%rsp),%eax
  402a8d:	69 c0 ca b9 00 00    	imul   $0xb9ca,%eax,%eax
  402a93:	89 44 24 dc          	mov    %eax,-0x24(%rsp)
  402a97:	8b 44 24 d4          	mov    -0x2c(%rsp),%eax
  402a9b:	69 c0 8a d9 00 00    	imul   $0xd98a,%eax,%eax
  402aa1:	89 44 24 d4          	mov    %eax,-0x2c(%rsp)
  402aa5:	8b 44 24 d0          	mov    -0x30(%rsp),%eax
  402aa9:	69 c0 da 3c 00 00    	imul   $0x3cda,%eax,%eax
  402aaf:	89 44 24 d0          	mov    %eax,-0x30(%rsp)
  402ab3:	8b 44 24 c8          	mov    -0x38(%rsp),%eax
  402ab7:	69 c0 75 7f 00 00    	imul   $0x7f75,%eax,%eax
  402abd:	89 44 24 c8          	mov    %eax,-0x38(%rsp)
  402ac1:	8b 44 24 e4          	mov    -0x1c(%rsp),%eax
  402ac5:	69 c0 80 cb 00 00    	imul   $0xcb80,%eax,%eax
  402acb:	89 44 24 e4          	mov    %eax,-0x1c(%rsp)
  402acf:	8b 44 24 d8          	mov    -0x28(%rsp),%eax
  402ad3:	69 c0 50 33 00 00    	imul   $0x3350,%eax,%eax
  402ad9:	89 44 24 d8          	mov    %eax,-0x28(%rsp)
  402add:	8b 44 24 d8          	mov    -0x28(%rsp),%eax
  402ae1:	69 c0 e5 86 00 00    	imul   $0x86e5,%eax,%eax
  402ae7:	89 44 24 d8          	mov    %eax,-0x28(%rsp)
  402aeb:	8b 44 24 dc          	mov    -0x24(%rsp),%eax
  402aef:	69 c0 de 14 00 00    	imul   $0x14de,%eax,%eax
  402af5:	89 44 24 dc          	mov    %eax,-0x24(%rsp)
  402af9:	8b 44 24 ec          	mov    -0x14(%rsp),%eax
  402afd:	69 c0 69 e0 00 00    	imul   $0xe069,%eax,%eax
  402b03:	89 44 24 ec          	mov    %eax,-0x14(%rsp)
  402b07:	8b 44 24 d8          	mov    -0x28(%rsp),%eax
  402b0b:	69 c0 1b e5 00 00    	imul   $0xe51b,%eax,%eax
  402b11:	89 44 24 d8          	mov    %eax,-0x28(%rsp)
  402b15:	8b 44 24 d0          	mov    -0x30(%rsp),%eax
  402b19:	69 c0 5a bf 00 00    	imul   $0xbf5a,%eax,%eax
  402b1f:	89 44 24 d0          	mov    %eax,-0x30(%rsp)
  402b23:	8b 44 24 e8          	mov    -0x18(%rsp),%eax
  402b27:	69 c0 3d 9a 00 00    	imul   $0x9a3d,%eax,%eax
  402b2d:	89 44 24 e8          	mov    %eax,-0x18(%rsp)
  402b31:	8b 44 24 d8          	mov    -0x28(%rsp),%eax
  402b35:	69 c0 ce ca 00 00    	imul   $0xcace,%eax,%eax
  402b3b:	89 44 24 d8          	mov    %eax,-0x28(%rsp)
  402b3f:	8b 44 24 c8          	mov    -0x38(%rsp),%eax
  402b43:	69 c0 d1 00 00 00    	imul   $0xd1,%eax,%eax
  402b49:	89 44 24 c8          	mov    %eax,-0x38(%rsp)
  402b4d:	8b 44 24 d0          	mov    -0x30(%rsp),%eax
  402b51:	69 c0 34 29 00 00    	imul   $0x2934,%eax,%eax
  402b57:	89 44 24 d0          	mov    %eax,-0x30(%rsp)
  402b5b:	8b 44 24 c8          	mov    -0x38(%rsp),%eax
  402b5f:	69 c0 10 98 00 00    	imul   $0x9810,%eax,%eax
  402b65:	89 44 24 c8          	mov    %eax,-0x38(%rsp)
  402b69:	8b 44 24 d4          	mov    -0x2c(%rsp),%eax
  402b6d:	69 c0 28 91 00 00    	imul   $0x9128,%eax,%eax
  402b73:	89 44 24 d4          	mov    %eax,-0x2c(%rsp)
  402b77:	8b 44 24 e0          	mov    -0x20(%rsp),%eax
  402b7b:	69 c0 bc 9e 00 00    	imul   $0x9ebc,%eax,%eax
  402b81:	89 44 24 e0          	mov    %eax,-0x20(%rsp)
  402b85:	8b 44 24 d4          	mov    -0x2c(%rsp),%eax
  402b89:	69 c0 5f b3 00 00    	imul   $0xb35f,%eax,%eax
  402b8f:	89 44 24 d4          	mov    %eax,-0x2c(%rsp)
  402b93:	8b 44 24 e4          	mov    -0x1c(%rsp),%eax
  402b97:	69 c0 1c 1c 00 00    	imul   $0x1c1c,%eax,%eax
  402b9d:	89 44 24 e4          	mov    %eax,-0x1c(%rsp)
  402ba1:	8b 44 24 ec          	mov    -0x14(%rsp),%eax
  402ba5:	69 c0 75 31 00 00    	imul   $0x3175,%eax,%eax
  402bab:	89 44 24 ec          	mov    %eax,-0x14(%rsp)
  402baf:	8b 44 24 d0          	mov    -0x30(%rsp),%eax
  402bb3:	69 c0 05 9a 00 00    	imul   $0x9a05,%eax,%eax
  402bb9:	89 44 24 d0          	mov    %eax,-0x30(%rsp)
  402bbd:	8b 44 24 ec          	mov    -0x14(%rsp),%eax
  402bc1:	69 c0 bf 64 00 00    	imul   $0x64bf,%eax,%eax
  402bc7:	89 44 24 ec          	mov    %eax,-0x14(%rsp)
  402bcb:	8b 44 24 cc          	mov    -0x34(%rsp),%eax
  402bcf:	69 c0 ec ba 00 00    	imul   $0xbaec,%eax,%eax
  402bd5:	89 44 24 cc          	mov    %eax,-0x34(%rsp)
  402bd9:	8b 44 24 d4          	mov    -0x2c(%rsp),%eax
  402bdd:	69 c0 e3 04 00 00    	imul   $0x4e3,%eax,%eax
  402be3:	89 44 24 d4          	mov    %eax,-0x2c(%rsp)
  402be7:	8b 44 24 dc          	mov    -0x24(%rsp),%eax
  402beb:	69 c0 4f ed 00 00    	imul   $0xed4f,%eax,%eax
  402bf1:	89 44 24 dc          	mov    %eax,-0x24(%rsp)
  402bf5:	8b 44 24 d0          	mov    -0x30(%rsp),%eax
  402bf9:	69 c0 f5 72 00 00    	imul   $0x72f5,%eax,%eax
  402bff:	89 44 24 d0          	mov    %eax,-0x30(%rsp)
  402c03:	8b 44 24 dc          	mov    -0x24(%rsp),%eax
  402c07:	69 c0 7a 10 00 00    	imul   $0x107a,%eax,%eax
  402c0d:	89 44 24 dc          	mov    %eax,-0x24(%rsp)
  402c11:	8b 44 24 cc          	mov    -0x34(%rsp),%eax
  402c15:	69 c0 ba c4 00 00    	imul   $0xc4ba,%eax,%eax
  402c1b:	89 44 24 cc          	mov    %eax,-0x34(%rsp)
  402c1f:	8b 44 24 e8          	mov    -0x18(%rsp),%eax
  402c23:	69 c0 17 d3 00 00    	imul   $0xd317,%eax,%eax
  402c29:	89 44 24 e8          	mov    %eax,-0x18(%rsp)
  402c2d:	8b 44 24 cc          	mov    -0x34(%rsp),%eax
  402c31:	69 c0 0f 8d 00 00    	imul   $0x8d0f,%eax,%eax
  402c37:	89 44 24 cc          	mov    %eax,-0x34(%rsp)
  402c3b:	8b 44 24 d4          	mov    -0x2c(%rsp),%eax
  402c3f:	69 c0 ed d0 00 00    	imul   $0xd0ed,%eax,%eax
  402c45:	89 44 24 d4          	mov    %eax,-0x2c(%rsp)
  402c49:	8b 44 24 ec          	mov    -0x14(%rsp),%eax
  402c4d:	69 c0 c2 dc 00 00    	imul   $0xdcc2,%eax,%eax
  402c53:	89 44 24 ec          	mov    %eax,-0x14(%rsp)
  402c57:	8b 44 24 d0          	mov    -0x30(%rsp),%eax
  402c5b:	69 c0 3a ec 00 00    	imul   $0xec3a,%eax,%eax
  402c61:	89 44 24 d0          	mov    %eax,-0x30(%rsp)
  402c65:	8b 44 24 c8          	mov    -0x38(%rsp),%eax
  402c69:	69 c0 da 8d 00 00    	imul   $0x8dda,%eax,%eax
  402c6f:	89 44 24 c8          	mov    %eax,-0x38(%rsp)
  402c73:	8b 44 24 e4          	mov    -0x1c(%rsp),%eax
  402c77:	69 c0 01 0f 00 00    	imul   $0xf01,%eax,%eax
  402c7d:	89 44 24 e4          	mov    %eax,-0x1c(%rsp)
  402c81:	b8 00 00 00 00       	mov    $0x0,%eax
  402c86:	ba 00 00 00 00       	mov    $0x0,%edx
  402c8b:	eb 0b                	jmp    402c98 <scramble+0x4f6>
  402c8d:	89 c1                	mov    %eax,%ecx
  402c8f:	8b 4c 8c c8          	mov    -0x38(%rsp,%rcx,4),%ecx
  402c93:	01 ca                	add    %ecx,%edx
  402c95:	83 c0 01             	add    $0x1,%eax
  402c98:	83 f8 09             	cmp    $0x9,%eax
  402c9b:	76 f0                	jbe    402c8d <scramble+0x4eb>
  402c9d:	89 d0                	mov    %edx,%eax
  402c9f:	c3                   	retq   

0000000000402ca0 <getbuf>:
  402ca0:	48 83 ec 28          	sub    $0x28,%rsp
  402ca4:	48 89 e7             	mov    %rsp,%rdi
  402ca7:	e8 75 24 00 00       	callq  405121 <Gets>
  402cac:	b8 01 00 00 00       	mov    $0x1,%eax
  402cb1:	48 83 c4 28          	add    $0x28,%rsp
  402cb5:	c3                   	retq   
  402cb6:	66 2e 0f 1f 84 00 00 	nopw   %cs:0x0(%rax,%rax,1)
  402cbd:	00 00 00 
  402cc0:	66 2e 0f 1f 84 00 00 	nopw   %cs:0x0(%rax,%rax,1)
  402cc7:	00 00 00 
  402cca:	66 2e 0f 1f 84 00 00 	nopw   %cs:0x0(%rax,%rax,1)
  402cd1:	00 00 00 
  402cd4:	66 2e 0f 1f 84 00 00 	nopw   %cs:0x0(%rax,%rax,1)
  402cdb:	00 00 00 
  402cde:	66 2e 0f 1f 84 00 00 	nopw   %cs:0x0(%rax,%rax,1)
  402ce5:	00 00 00 
  402ce8:	66 2e 0f 1f 84 00 00 	nopw   %cs:0x0(%rax,%rax,1)
  402cef:	00 00 00 
  402cf2:	66 2e 0f 1f 84 00 00 	nopw   %cs:0x0(%rax,%rax,1)
  402cf9:	00 00 00 
  402cfc:	66 2e 0f 1f 84 00 00 	nopw   %cs:0x0(%rax,%rax,1)
  402d03:	00 00 00 
  402d06:	66 2e 0f 1f 84 00 00 	nopw   %cs:0x0(%rax,%rax,1)
  402d0d:	00 00 00 
  402d10:	66 2e 0f 1f 84 00 00 	nopw   %cs:0x0(%rax,%rax,1)
  402d17:	00 00 00 
  402d1a:	66 2e 0f 1f 84 00 00 	nopw   %cs:0x0(%rax,%rax,1)
  402d21:	00 00 00 
  402d24:	66 2e 0f 1f 84 00 00 	nopw   %cs:0x0(%rax,%rax,1)
  402d2b:	00 00 00 
  402d2e:	66 2e 0f 1f 84 00 00 	nopw   %cs:0x0(%rax,%rax,1)
  402d35:	00 00 00 
  402d38:	66 2e 0f 1f 84 00 00 	nopw   %cs:0x0(%rax,%rax,1)
  402d3f:	00 00 00 
  402d42:	66 2e 0f 1f 84 00 00 	nopw   %cs:0x0(%rax,%rax,1)
  402d49:	00 00 00 
  402d4c:	66 2e 0f 1f 84 00 00 	nopw   %cs:0x0(%rax,%rax,1)
  402d53:	00 00 00 
  402d56:	66 2e 0f 1f 84 00 00 	nopw   %cs:0x0(%rax,%rax,1)
  402d5d:	00 00 00 
  402d60:	66 2e 0f 1f 84 00 00 	nopw   %cs:0x0(%rax,%rax,1)
  402d67:	00 00 00 
  402d6a:	66 2e 0f 1f 84 00 00 	nopw   %cs:0x0(%rax,%rax,1)
  402d71:	00 00 00 
  402d74:	66 2e 0f 1f 84 00 00 	nopw   %cs:0x0(%rax,%rax,1)
  402d7b:	00 00 00 
  402d7e:	66 2e 0f 1f 84 00 00 	nopw   %cs:0x0(%rax,%rax,1)
  402d85:	00 00 00 
  402d88:	66 2e 0f 1f 84 00 00 	nopw   %cs:0x0(%rax,%rax,1)
  402d8f:	00 00 00 
  402d92:	66 2e 0f 1f 84 00 00 	nopw   %cs:0x0(%rax,%rax,1)
  402d99:	00 00 00 
  402d9c:	66 2e 0f 1f 84 00 00 	nopw   %cs:0x0(%rax,%rax,1)
  402da3:	00 00 00 
  402da6:	66 2e 0f 1f 84 00 00 	nopw   %cs:0x0(%rax,%rax,1)
  402dad:	00 00 00 
  402db0:	66 2e 0f 1f 84 00 00 	nopw   %cs:0x0(%rax,%rax,1)
  402db7:	00 00 00 
  402dba:	66 2e 0f 1f 84 00 00 	nopw   %cs:0x0(%rax,%rax,1)
  402dc1:	00 00 00 
  402dc4:	66 2e 0f 1f 84 00 00 	nopw   %cs:0x0(%rax,%rax,1)
  402dcb:	00 00 00 
  402dce:	66 2e 0f 1f 84 00 00 	nopw   %cs:0x0(%rax,%rax,1)
  402dd5:	00 00 00 
  402dd8:	66 2e 0f 1f 84 00 00 	nopw   %cs:0x0(%rax,%rax,1)
  402ddf:	00 00 00 
  402de2:	66 2e 0f 1f 84 00 00 	nopw   %cs:0x0(%rax,%rax,1)
  402de9:	00 00 00 
  402dec:	66 2e 0f 1f 84 00 00 	nopw   %cs:0x0(%rax,%rax,1)
  402df3:	00 00 00 
  402df6:	66 2e 0f 1f 84 00 00 	nopw   %cs:0x0(%rax,%rax,1)
  402dfd:	00 00 00 
  402e00:	66 2e 0f 1f 84 00 00 	nopw   %cs:0x0(%rax,%rax,1)
  402e07:	00 00 00 
  402e0a:	66 2e 0f 1f 84 00 00 	nopw   %cs:0x0(%rax,%rax,1)
  402e11:	00 00 00 
  402e14:	66 2e 0f 1f 84 00 00 	nopw   %cs:0x0(%rax,%rax,1)
  402e1b:	00 00 00 
  402e1e:	66 2e 0f 1f 84 00 00 	nopw   %cs:0x0(%rax,%rax,1)
  402e25:	00 00 00 
  402e28:	66 2e 0f 1f 84 00 00 	nopw   %cs:0x0(%rax,%rax,1)
  402e2f:	00 00 00 
  402e32:	66 2e 0f 1f 84 00 00 	nopw   %cs:0x0(%rax,%rax,1)
  402e39:	00 00 00 
  402e3c:	66 2e 0f 1f 84 00 00 	nopw   %cs:0x0(%rax,%rax,1)
  402e43:	00 00 00 
  402e46:	66 2e 0f 1f 84 00 00 	nopw   %cs:0x0(%rax,%rax,1)
  402e4d:	00 00 00 
  402e50:	66 2e 0f 1f 84 00 00 	nopw   %cs:0x0(%rax,%rax,1)
  402e57:	00 00 00 
  402e5a:	66 2e 0f 1f 84 00 00 	nopw   %cs:0x0(%rax,%rax,1)
  402e61:	00 00 00 
  402e64:	66 2e 0f 1f 84 00 00 	nopw   %cs:0x0(%rax,%rax,1)
  402e6b:	00 00 00 
  402e6e:	66 2e 0f 1f 84 00 00 	nopw   %cs:0x0(%rax,%rax,1)
  402e75:	00 00 00 
  402e78:	66 2e 0f 1f 84 00 00 	nopw   %cs:0x0(%rax,%rax,1)
  402e7f:	00 00 00 
  402e82:	66 2e 0f 1f 84 00 00 	nopw   %cs:0x0(%rax,%rax,1)
  402e89:	00 00 00 
  402e8c:	66 2e 0f 1f 84 00 00 	nopw   %cs:0x0(%rax,%rax,1)
  402e93:	00 00 00 
  402e96:	66 2e 0f 1f 84 00 00 	nopw   %cs:0x0(%rax,%rax,1)
  402e9d:	00 00 00 
  402ea0:	66 2e 0f 1f 84 00 00 	nopw   %cs:0x0(%rax,%rax,1)
  402ea7:	00 00 00 
  402eaa:	66 2e 0f 1f 84 00 00 	nopw   %cs:0x0(%rax,%rax,1)
  402eb1:	00 00 00 
  402eb4:	66 2e 0f 1f 84 00 00 	nopw   %cs:0x0(%rax,%rax,1)
  402ebb:	00 00 00 
  402ebe:	66 2e 0f 1f 84 00 00 	nopw   %cs:0x0(%rax,%rax,1)
  402ec5:	00 00 00 
  402ec8:	66 2e 0f 1f 84 00 00 	nopw   %cs:0x0(%rax,%rax,1)
  402ecf:	00 00 00 
  402ed2:	66 2e 0f 1f 84 00 00 	nopw   %cs:0x0(%rax,%rax,1)
  402ed9:	00 00 00 
  402edc:	66 2e 0f 1f 84 00 00 	nopw   %cs:0x0(%rax,%rax,1)
  402ee3:	00 00 00 
  402ee6:	66 2e 0f 1f 84 00 00 	nopw   %cs:0x0(%rax,%rax,1)
  402eed:	00 00 00 
  402ef0:	66 2e 0f 1f 84 00 00 	nopw   %cs:0x0(%rax,%rax,1)
  402ef7:	00 00 00 
  402efa:	66 2e 0f 1f 84 00 00 	nopw   %cs:0x0(%rax,%rax,1)
  402f01:	00 00 00 
  402f04:	66 2e 0f 1f 84 00 00 	nopw   %cs:0x0(%rax,%rax,1)
  402f0b:	00 00 00 
  402f0e:	66 2e 0f 1f 84 00 00 	nopw   %cs:0x0(%rax,%rax,1)
  402f15:	00 00 00 
  402f18:	66 2e 0f 1f 84 00 00 	nopw   %cs:0x0(%rax,%rax,1)
  402f1f:	00 00 00 
  402f22:	66 2e 0f 1f 84 00 00 	nopw   %cs:0x0(%rax,%rax,1)
  402f29:	00 00 00 
  402f2c:	66 2e 0f 1f 84 00 00 	nopw   %cs:0x0(%rax,%rax,1)
  402f33:	00 00 00 
  402f36:	66 2e 0f 1f 84 00 00 	nopw   %cs:0x0(%rax,%rax,1)
  402f3d:	00 00 00 
  402f40:	66 2e 0f 1f 84 00 00 	nopw   %cs:0x0(%rax,%rax,1)
  402f47:	00 00 00 
  402f4a:	66 2e 0f 1f 84 00 00 	nopw   %cs:0x0(%rax,%rax,1)
  402f51:	00 00 00 
  402f54:	66 2e 0f 1f 84 00 00 	nopw   %cs:0x0(%rax,%rax,1)
  402f5b:	00 00 00 
  402f5e:	66 2e 0f 1f 84 00 00 	nopw   %cs:0x0(%rax,%rax,1)
  402f65:	00 00 00 
  402f68:	66 2e 0f 1f 84 00 00 	nopw   %cs:0x0(%rax,%rax,1)
  402f6f:	00 00 00 
  402f72:	66 2e 0f 1f 84 00 00 	nopw   %cs:0x0(%rax,%rax,1)
  402f79:	00 00 00 
  402f7c:	66 2e 0f 1f 84 00 00 	nopw   %cs:0x0(%rax,%rax,1)
  402f83:	00 00 00 
  402f86:	66 2e 0f 1f 84 00 00 	nopw   %cs:0x0(%rax,%rax,1)
  402f8d:	00 00 00 
  402f90:	66 2e 0f 1f 84 00 00 	nopw   %cs:0x0(%rax,%rax,1)
  402f97:	00 00 00 
  402f9a:	66 2e 0f 1f 84 00 00 	nopw   %cs:0x0(%rax,%rax,1)
  402fa1:	00 00 00 
  402fa4:	66 2e 0f 1f 84 00 00 	nopw   %cs:0x0(%rax,%rax,1)
  402fab:	00 00 00 
  402fae:	66 2e 0f 1f 84 00 00 	nopw   %cs:0x0(%rax,%rax,1)
  402fb5:	00 00 00 
  402fb8:	66 2e 0f 1f 84 00 00 	nopw   %cs:0x0(%rax,%rax,1)
  402fbf:	00 00 00 
  402fc2:	66 2e 0f 1f 84 00 00 	nopw   %cs:0x0(%rax,%rax,1)
  402fc9:	00 00 00 
  402fcc:	66 2e 0f 1f 84 00 00 	nopw   %cs:0x0(%rax,%rax,1)
  402fd3:	00 00 00 
  402fd6:	66 2e 0f 1f 84 00 00 	nopw   %cs:0x0(%rax,%rax,1)
  402fdd:	00 00 00 
  402fe0:	66 2e 0f 1f 84 00 00 	nopw   %cs:0x0(%rax,%rax,1)
  402fe7:	00 00 00 
  402fea:	66 2e 0f 1f 84 00 00 	nopw   %cs:0x0(%rax,%rax,1)
  402ff1:	00 00 00 
  402ff4:	66 2e 0f 1f 84 00 00 	nopw   %cs:0x0(%rax,%rax,1)
  402ffb:	00 00 00 
  402ffe:	66 90                	xchg   %ax,%ax

0000000000403000 <touch1>:
  403000:	48 83 ec 08          	sub    $0x8,%rsp
  403004:	c7 05 1a 7a 00 00 01 	movl   $0x1,0x7a1a(%rip)        # 40aa28 <vlevel>
  40300b:	00 00 00 
  40300e:	bf ce 83 40 00       	mov    $0x4083ce,%edi
  403013:	e8 78 e0 ff ff       	callq  401090 <puts@plt>
  403018:	bf 01 00 00 00       	mov    $0x1,%edi
  40301d:	e8 f2 22 00 00       	callq  405314 <validate>
  403022:	bf 00 00 00 00       	mov    $0x0,%edi
  403027:	e8 04 e2 ff ff       	callq  401230 <exit@plt>
  40302c:	e9 cf 0f 00 00       	jmpq   404000 <touch2>
  403031:	66 66 2e 0f 1f 84 00 	data16 nopw %cs:0x0(%rax,%rax,1)
  403038:	00 00 00 00 
  40303c:	66 66 2e 0f 1f 84 00 	data16 nopw %cs:0x0(%rax,%rax,1)
  403043:	00 00 00 00 
  403047:	66 66 2e 0f 1f 84 00 	data16 nopw %cs:0x0(%rax,%rax,1)
  40304e:	00 00 00 00 
  403052:	66 66 2e 0f 1f 84 00 	data16 nopw %cs:0x0(%rax,%rax,1)
  403059:	00 00 00 00 
  40305d:	66 66 2e 0f 1f 84 00 	data16 nopw %cs:0x0(%rax,%rax,1)
  403064:	00 00 00 00 
  403068:	66 66 2e 0f 1f 84 00 	data16 nopw %cs:0x0(%rax,%rax,1)
  40306f:	00 00 00 00 
  403073:	66 66 2e 0f 1f 84 00 	data16 nopw %cs:0x0(%rax,%rax,1)
  40307a:	00 00 00 00 
  40307e:	66 66 2e 0f 1f 84 00 	data16 nopw %cs:0x0(%rax,%rax,1)
  403085:	00 00 00 00 
  403089:	66 66 2e 0f 1f 84 00 	data16 nopw %cs:0x0(%rax,%rax,1)
  403090:	00 00 00 00 
  403094:	66 66 2e 0f 1f 84 00 	data16 nopw %cs:0x0(%rax,%rax,1)
  40309b:	00 00 00 00 
  40309f:	66 66 2e 0f 1f 84 00 	data16 nopw %cs:0x0(%rax,%rax,1)
  4030a6:	00 00 00 00 
  4030aa:	66 66 2e 0f 1f 84 00 	data16 nopw %cs:0x0(%rax,%rax,1)
  4030b1:	00 00 00 00 
  4030b5:	66 66 2e 0f 1f 84 00 	data16 nopw %cs:0x0(%rax,%rax,1)
  4030bc:	00 00 00 00 
  4030c0:	66 66 2e 0f 1f 84 00 	data16 nopw %cs:0x0(%rax,%rax,1)
  4030c7:	00 00 00 00 
  4030cb:	66 66 2e 0f 1f 84 00 	data16 nopw %cs:0x0(%rax,%rax,1)
  4030d2:	00 00 00 00 
  4030d6:	66 66 2e 0f 1f 84 00 	data16 nopw %cs:0x0(%rax,%rax,1)
  4030dd:	00 00 00 00 
  4030e1:	66 66 2e 0f 1f 84 00 	data16 nopw %cs:0x0(%rax,%rax,1)
  4030e8:	00 00 00 00 
  4030ec:	66 66 2e 0f 1f 84 00 	data16 nopw %cs:0x0(%rax,%rax,1)
  4030f3:	00 00 00 00 
  4030f7:	66 66 2e 0f 1f 84 00 	data16 nopw %cs:0x0(%rax,%rax,1)
  4030fe:	00 00 00 00 
  403102:	66 66 2e 0f 1f 84 00 	data16 nopw %cs:0x0(%rax,%rax,1)
  403109:	00 00 00 00 
  40310d:	66 66 2e 0f 1f 84 00 	data16 nopw %cs:0x0(%rax,%rax,1)
  403114:	00 00 00 00 
  403118:	66 66 2e 0f 1f 84 00 	data16 nopw %cs:0x0(%rax,%rax,1)
  40311f:	00 00 00 00 
  403123:	66 66 2e 0f 1f 84 00 	data16 nopw %cs:0x0(%rax,%rax,1)
  40312a:	00 00 00 00 
  40312e:	66 66 2e 0f 1f 84 00 	data16 nopw %cs:0x0(%rax,%rax,1)
  403135:	00 00 00 00 
  403139:	66 66 2e 0f 1f 84 00 	data16 nopw %cs:0x0(%rax,%rax,1)
  403140:	00 00 00 00 
  403144:	66 66 2e 0f 1f 84 00 	data16 nopw %cs:0x0(%rax,%rax,1)
  40314b:	00 00 00 00 
  40314f:	66 66 2e 0f 1f 84 00 	data16 nopw %cs:0x0(%rax,%rax,1)
  403156:	00 00 00 00 
  40315a:	66 66 2e 0f 1f 84 00 	data16 nopw %cs:0x0(%rax,%rax,1)
  403161:	00 00 00 00 
  403165:	66 66 2e 0f 1f 84 00 	data16 nopw %cs:0x0(%rax,%rax,1)
  40316c:	00 00 00 00 
  403170:	66 66 2e 0f 1f 84 00 	data16 nopw %cs:0x0(%rax,%rax,1)
  403177:	00 00 00 00 
  40317b:	66 66 2e 0f 1f 84 00 	data16 nopw %cs:0x0(%rax,%rax,1)
  403182:	00 00 00 00 
  403186:	66 66 2e 0f 1f 84 00 	data16 nopw %cs:0x0(%rax,%rax,1)
  40318d:	00 00 00 00 
  403191:	66 66 2e 0f 1f 84 00 	data16 nopw %cs:0x0(%rax,%rax,1)
  403198:	00 00 00 00 
  40319c:	66 66 2e 0f 1f 84 00 	data16 nopw %cs:0x0(%rax,%rax,1)
  4031a3:	00 00 00 00 
  4031a7:	66 66 2e 0f 1f 84 00 	data16 nopw %cs:0x0(%rax,%rax,1)
  4031ae:	00 00 00 00 
  4031b2:	66 66 2e 0f 1f 84 00 	data16 nopw %cs:0x0(%rax,%rax,1)
  4031b9:	00 00 00 00 
  4031bd:	66 66 2e 0f 1f 84 00 	data16 nopw %cs:0x0(%rax,%rax,1)
  4031c4:	00 00 00 00 
  4031c8:	66 66 2e 0f 1f 84 00 	data16 nopw %cs:0x0(%rax,%rax,1)
  4031cf:	00 00 00 00 
  4031d3:	66 66 2e 0f 1f 84 00 	data16 nopw %cs:0x0(%rax,%rax,1)
  4031da:	00 00 00 00 
  4031de:	66 66 2e 0f 1f 84 00 	data16 nopw %cs:0x0(%rax,%rax,1)
  4031e5:	00 00 00 00 
  4031e9:	66 66 2e 0f 1f 84 00 	data16 nopw %cs:0x0(%rax,%rax,1)
  4031f0:	00 00 00 00 
  4031f4:	66 66 2e 0f 1f 84 00 	data16 nopw %cs:0x0(%rax,%rax,1)
  4031fb:	00 00 00 00 
  4031ff:	66 66 2e 0f 1f 84 00 	data16 nopw %cs:0x0(%rax,%rax,1)
  403206:	00 00 00 00 
  40320a:	66 66 2e 0f 1f 84 00 	data16 nopw %cs:0x0(%rax,%rax,1)
  403211:	00 00 00 00 
  403215:	66 66 2e 0f 1f 84 00 	data16 nopw %cs:0x0(%rax,%rax,1)
  40321c:	00 00 00 00 
  403220:	66 66 2e 0f 1f 84 00 	data16 nopw %cs:0x0(%rax,%rax,1)
  403227:	00 00 00 00 
  40322b:	66 66 2e 0f 1f 84 00 	data16 nopw %cs:0x0(%rax,%rax,1)
  403232:	00 00 00 00 
  403236:	66 66 2e 0f 1f 84 00 	data16 nopw %cs:0x0(%rax,%rax,1)
  40323d:	00 00 00 00 
  403241:	66 66 2e 0f 1f 84 00 	data16 nopw %cs:0x0(%rax,%rax,1)
  403248:	00 00 00 00 
  40324c:	66 66 2e 0f 1f 84 00 	data16 nopw %cs:0x0(%rax,%rax,1)
  403253:	00 00 00 00 
  403257:	66 66 2e 0f 1f 84 00 	data16 nopw %cs:0x0(%rax,%rax,1)
  40325e:	00 00 00 00 
  403262:	66 66 2e 0f 1f 84 00 	data16 nopw %cs:0x0(%rax,%rax,1)
  403269:	00 00 00 00 
  40326d:	66 66 2e 0f 1f 84 00 	data16 nopw %cs:0x0(%rax,%rax,1)
  403274:	00 00 00 00 
  403278:	66 66 2e 0f 1f 84 00 	data16 nopw %cs:0x0(%rax,%rax,1)
  40327f:	00 00 00 00 
  403283:	66 66 2e 0f 1f 84 00 	data16 nopw %cs:0x0(%rax,%rax,1)
  40328a:	00 00 00 00 
  40328e:	66 66 2e 0f 1f 84 00 	data16 nopw %cs:0x0(%rax,%rax,1)
  403295:	00 00 00 00 
  403299:	66 66 2e 0f 1f 84 00 	data16 nopw %cs:0x0(%rax,%rax,1)
  4032a0:	00 00 00 00 
  4032a4:	66 66 2e 0f 1f 84 00 	data16 nopw %cs:0x0(%rax,%rax,1)
  4032ab:	00 00 00 00 
  4032af:	66 66 2e 0f 1f 84 00 	data16 nopw %cs:0x0(%rax,%rax,1)
  4032b6:	00 00 00 00 
  4032ba:	66 66 2e 0f 1f 84 00 	data16 nopw %cs:0x0(%rax,%rax,1)
  4032c1:	00 00 00 00 
  4032c5:	66 66 2e 0f 1f 84 00 	data16 nopw %cs:0x0(%rax,%rax,1)
  4032cc:	00 00 00 00 
  4032d0:	66 66 2e 0f 1f 84 00 	data16 nopw %cs:0x0(%rax,%rax,1)
  4032d7:	00 00 00 00 
  4032db:	66 66 2e 0f 1f 84 00 	data16 nopw %cs:0x0(%rax,%rax,1)
  4032e2:	00 00 00 00 
  4032e6:	66 66 2e 0f 1f 84 00 	data16 nopw %cs:0x0(%rax,%rax,1)
  4032ed:	00 00 00 00 
  4032f1:	66 66 2e 0f 1f 84 00 	data16 nopw %cs:0x0(%rax,%rax,1)
  4032f8:	00 00 00 00 
  4032fc:	66 66 2e 0f 1f 84 00 	data16 nopw %cs:0x0(%rax,%rax,1)
  403303:	00 00 00 00 
  403307:	66 66 2e 0f 1f 84 00 	data16 nopw %cs:0x0(%rax,%rax,1)
  40330e:	00 00 00 00 
  403312:	66 66 2e 0f 1f 84 00 	data16 nopw %cs:0x0(%rax,%rax,1)
  403319:	00 00 00 00 
  40331d:	66 66 2e 0f 1f 84 00 	data16 nopw %cs:0x0(%rax,%rax,1)
  403324:	00 00 00 00 
  403328:	66 66 2e 0f 1f 84 00 	data16 nopw %cs:0x0(%rax,%rax,1)
  40332f:	00 00 00 00 
  403333:	66 66 2e 0f 1f 84 00 	data16 nopw %cs:0x0(%rax,%rax,1)
  40333a:	00 00 00 00 
  40333e:	66 66 2e 0f 1f 84 00 	data16 nopw %cs:0x0(%rax,%rax,1)
  403345:	00 00 00 00 
  403349:	66 66 2e 0f 1f 84 00 	data16 nopw %cs:0x0(%rax,%rax,1)
  403350:	00 00 00 00 
  403354:	66 66 2e 0f 1f 84 00 	data16 nopw %cs:0x0(%rax,%rax,1)
  40335b:	00 00 00 00 
  40335f:	66 66 2e 0f 1f 84 00 	data16 nopw %cs:0x0(%rax,%rax,1)
  403366:	00 00 00 00 
  40336a:	66 66 2e 0f 1f 84 00 	data16 nopw %cs:0x0(%rax,%rax,1)
  403371:	00 00 00 00 
  403375:	66 66 2e 0f 1f 84 00 	data16 nopw %cs:0x0(%rax,%rax,1)
  40337c:	00 00 00 00 
  403380:	66 66 2e 0f 1f 84 00 	data16 nopw %cs:0x0(%rax,%rax,1)
  403387:	00 00 00 00 
  40338b:	66 66 2e 0f 1f 84 00 	data16 nopw %cs:0x0(%rax,%rax,1)
  403392:	00 00 00 00 
  403396:	66 66 2e 0f 1f 84 00 	data16 nopw %cs:0x0(%rax,%rax,1)
  40339d:	00 00 00 00 
  4033a1:	66 66 2e 0f 1f 84 00 	data16 nopw %cs:0x0(%rax,%rax,1)
  4033a8:	00 00 00 00 
  4033ac:	66 66 2e 0f 1f 84 00 	data16 nopw %cs:0x0(%rax,%rax,1)
  4033b3:	00 00 00 00 
  4033b7:	66 66 2e 0f 1f 84 00 	data16 nopw %cs:0x0(%rax,%rax,1)
  4033be:	00 00 00 00 
  4033c2:	66 66 2e 0f 1f 84 00 	data16 nopw %cs:0x0(%rax,%rax,1)
  4033c9:	00 00 00 00 
  4033cd:	66 66 2e 0f 1f 84 00 	data16 nopw %cs:0x0(%rax,%rax,1)
  4033d4:	00 00 00 00 
  4033d8:	66 66 2e 0f 1f 84 00 	data16 nopw %cs:0x0(%rax,%rax,1)
  4033df:	00 00 00 00 
  4033e3:	66 66 2e 0f 1f 84 00 	data16 nopw %cs:0x0(%rax,%rax,1)
  4033ea:	00 00 00 00 
  4033ee:	66 66 2e 0f 1f 84 00 	data16 nopw %cs:0x0(%rax,%rax,1)
  4033f5:	00 00 00 00 
  4033f9:	66 66 2e 0f 1f 84 00 	data16 nopw %cs:0x0(%rax,%rax,1)
  403400:	00 00 00 00 
  403404:	66 66 2e 0f 1f 84 00 	data16 nopw %cs:0x0(%rax,%rax,1)
  40340b:	00 00 00 00 
  40340f:	66 66 2e 0f 1f 84 00 	data16 nopw %cs:0x0(%rax,%rax,1)
  403416:	00 00 00 00 
  40341a:	66 66 2e 0f 1f 84 00 	data16 nopw %cs:0x0(%rax,%rax,1)
  403421:	00 00 00 00 
  403425:	66 66 2e 0f 1f 84 00 	data16 nopw %cs:0x0(%rax,%rax,1)
  40342c:	00 00 00 00 
  403430:	66 66 2e 0f 1f 84 00 	data16 nopw %cs:0x0(%rax,%rax,1)
  403437:	00 00 00 00 
  40343b:	66 66 2e 0f 1f 84 00 	data16 nopw %cs:0x0(%rax,%rax,1)
  403442:	00 00 00 00 
  403446:	66 66 2e 0f 1f 84 00 	data16 nopw %cs:0x0(%rax,%rax,1)
  40344d:	00 00 00 00 
  403451:	66 66 2e 0f 1f 84 00 	data16 nopw %cs:0x0(%rax,%rax,1)
  403458:	00 00 00 00 
  40345c:	66 66 2e 0f 1f 84 00 	data16 nopw %cs:0x0(%rax,%rax,1)
  403463:	00 00 00 00 
  403467:	66 66 2e 0f 1f 84 00 	data16 nopw %cs:0x0(%rax,%rax,1)
  40346e:	00 00 00 00 
  403472:	66 66 2e 0f 1f 84 00 	data16 nopw %cs:0x0(%rax,%rax,1)
  403479:	00 00 00 00 
  40347d:	66 66 2e 0f 1f 84 00 	data16 nopw %cs:0x0(%rax,%rax,1)
  403484:	00 00 00 00 
  403488:	66 66 2e 0f 1f 84 00 	data16 nopw %cs:0x0(%rax,%rax,1)
  40348f:	00 00 00 00 
  403493:	66 66 2e 0f 1f 84 00 	data16 nopw %cs:0x0(%rax,%rax,1)
  40349a:	00 00 00 00 
  40349e:	66 66 2e 0f 1f 84 00 	data16 nopw %cs:0x0(%rax,%rax,1)
  4034a5:	00 00 00 00 
  4034a9:	66 66 2e 0f 1f 84 00 	data16 nopw %cs:0x0(%rax,%rax,1)
  4034b0:	00 00 00 00 
  4034b4:	66 66 2e 0f 1f 84 00 	data16 nopw %cs:0x0(%rax,%rax,1)
  4034bb:	00 00 00 00 
  4034bf:	66 66 2e 0f 1f 84 00 	data16 nopw %cs:0x0(%rax,%rax,1)
  4034c6:	00 00 00 00 
  4034ca:	66 66 2e 0f 1f 84 00 	data16 nopw %cs:0x0(%rax,%rax,1)
  4034d1:	00 00 00 00 
  4034d5:	66 66 2e 0f 1f 84 00 	data16 nopw %cs:0x0(%rax,%rax,1)
  4034dc:	00 00 00 00 
  4034e0:	66 66 2e 0f 1f 84 00 	data16 nopw %cs:0x0(%rax,%rax,1)
  4034e7:	00 00 00 00 
  4034eb:	66 66 2e 0f 1f 84 00 	data16 nopw %cs:0x0(%rax,%rax,1)
  4034f2:	00 00 00 00 
  4034f6:	66 66 2e 0f 1f 84 00 	data16 nopw %cs:0x0(%rax,%rax,1)
  4034fd:	00 00 00 00 
  403501:	66 66 2e 0f 1f 84 00 	data16 nopw %cs:0x0(%rax,%rax,1)
  403508:	00 00 00 00 
  40350c:	66 66 2e 0f 1f 84 00 	data16 nopw %cs:0x0(%rax,%rax,1)
  403513:	00 00 00 00 
  403517:	66 66 2e 0f 1f 84 00 	data16 nopw %cs:0x0(%rax,%rax,1)
  40351e:	00 00 00 00 
  403522:	66 66 2e 0f 1f 84 00 	data16 nopw %cs:0x0(%rax,%rax,1)
  403529:	00 00 00 00 
  40352d:	66 66 2e 0f 1f 84 00 	data16 nopw %cs:0x0(%rax,%rax,1)
  403534:	00 00 00 00 
  403538:	66 66 2e 0f 1f 84 00 	data16 nopw %cs:0x0(%rax,%rax,1)
  40353f:	00 00 00 00 
  403543:	66 66 2e 0f 1f 84 00 	data16 nopw %cs:0x0(%rax,%rax,1)
  40354a:	00 00 00 00 
  40354e:	66 66 2e 0f 1f 84 00 	data16 nopw %cs:0x0(%rax,%rax,1)
  403555:	00 00 00 00 
  403559:	66 66 2e 0f 1f 84 00 	data16 nopw %cs:0x0(%rax,%rax,1)
  403560:	00 00 00 00 
  403564:	66 66 2e 0f 1f 84 00 	data16 nopw %cs:0x0(%rax,%rax,1)
  40356b:	00 00 00 00 
  40356f:	66 66 2e 0f 1f 84 00 	data16 nopw %cs:0x0(%rax,%rax,1)
  403576:	00 00 00 00 
  40357a:	66 66 2e 0f 1f 84 00 	data16 nopw %cs:0x0(%rax,%rax,1)
  403581:	00 00 00 00 
  403585:	66 66 2e 0f 1f 84 00 	data16 nopw %cs:0x0(%rax,%rax,1)
  40358c:	00 00 00 00 
  403590:	66 66 2e 0f 1f 84 00 	data16 nopw %cs:0x0(%rax,%rax,1)
  403597:	00 00 00 00 
  40359b:	66 66 2e 0f 1f 84 00 	data16 nopw %cs:0x0(%rax,%rax,1)
  4035a2:	00 00 00 00 
  4035a6:	66 66 2e 0f 1f 84 00 	data16 nopw %cs:0x0(%rax,%rax,1)
  4035ad:	00 00 00 00 
  4035b1:	66 66 2e 0f 1f 84 00 	data16 nopw %cs:0x0(%rax,%rax,1)
  4035b8:	00 00 00 00 
  4035bc:	66 66 2e 0f 1f 84 00 	data16 nopw %cs:0x0(%rax,%rax,1)
  4035c3:	00 00 00 00 
  4035c7:	66 66 2e 0f 1f 84 00 	data16 nopw %cs:0x0(%rax,%rax,1)
  4035ce:	00 00 00 00 
  4035d2:	66 66 2e 0f 1f 84 00 	data16 nopw %cs:0x0(%rax,%rax,1)
  4035d9:	00 00 00 00 
  4035dd:	66 66 2e 0f 1f 84 00 	data16 nopw %cs:0x0(%rax,%rax,1)
  4035e4:	00 00 00 00 
  4035e8:	66 66 2e 0f 1f 84 00 	data16 nopw %cs:0x0(%rax,%rax,1)
  4035ef:	00 00 00 00 
  4035f3:	66 66 2e 0f 1f 84 00 	data16 nopw %cs:0x0(%rax,%rax,1)
  4035fa:	00 00 00 00 
  4035fe:	66 66 2e 0f 1f 84 00 	data16 nopw %cs:0x0(%rax,%rax,1)
  403605:	00 00 00 00 
  403609:	66 66 2e 0f 1f 84 00 	data16 nopw %cs:0x0(%rax,%rax,1)
  403610:	00 00 00 00 
  403614:	66 66 2e 0f 1f 84 00 	data16 nopw %cs:0x0(%rax,%rax,1)
  40361b:	00 00 00 00 
  40361f:	66 66 2e 0f 1f 84 00 	data16 nopw %cs:0x0(%rax,%rax,1)
  403626:	00 00 00 00 
  40362a:	66 66 2e 0f 1f 84 00 	data16 nopw %cs:0x0(%rax,%rax,1)
  403631:	00 00 00 00 
  403635:	66 66 2e 0f 1f 84 00 	data16 nopw %cs:0x0(%rax,%rax,1)
  40363c:	00 00 00 00 
  403640:	66 66 2e 0f 1f 84 00 	data16 nopw %cs:0x0(%rax,%rax,1)
  403647:	00 00 00 00 
  40364b:	66 66 2e 0f 1f 84 00 	data16 nopw %cs:0x0(%rax,%rax,1)
  403652:	00 00 00 00 
  403656:	66 66 2e 0f 1f 84 00 	data16 nopw %cs:0x0(%rax,%rax,1)
  40365d:	00 00 00 00 
  403661:	66 66 2e 0f 1f 84 00 	data16 nopw %cs:0x0(%rax,%rax,1)
  403668:	00 00 00 00 
  40366c:	66 66 2e 0f 1f 84 00 	data16 nopw %cs:0x0(%rax,%rax,1)
  403673:	00 00 00 00 
  403677:	66 66 2e 0f 1f 84 00 	data16 nopw %cs:0x0(%rax,%rax,1)
  40367e:	00 00 00 00 
  403682:	66 66 2e 0f 1f 84 00 	data16 nopw %cs:0x0(%rax,%rax,1)
  403689:	00 00 00 00 
  40368d:	66 66 2e 0f 1f 84 00 	data16 nopw %cs:0x0(%rax,%rax,1)
  403694:	00 00 00 00 
  403698:	66 66 2e 0f 1f 84 00 	data16 nopw %cs:0x0(%rax,%rax,1)
  40369f:	00 00 00 00 
  4036a3:	66 66 2e 0f 1f 84 00 	data16 nopw %cs:0x0(%rax,%rax,1)
  4036aa:	00 00 00 00 
  4036ae:	66 66 2e 0f 1f 84 00 	data16 nopw %cs:0x0(%rax,%rax,1)
  4036b5:	00 00 00 00 
  4036b9:	66 66 2e 0f 1f 84 00 	data16 nopw %cs:0x0(%rax,%rax,1)
  4036c0:	00 00 00 00 
  4036c4:	66 66 2e 0f 1f 84 00 	data16 nopw %cs:0x0(%rax,%rax,1)
  4036cb:	00 00 00 00 
  4036cf:	66 66 2e 0f 1f 84 00 	data16 nopw %cs:0x0(%rax,%rax,1)
  4036d6:	00 00 00 00 
  4036da:	66 66 2e 0f 1f 84 00 	data16 nopw %cs:0x0(%rax,%rax,1)
  4036e1:	00 00 00 00 
  4036e5:	66 66 2e 0f 1f 84 00 	data16 nopw %cs:0x0(%rax,%rax,1)
  4036ec:	00 00 00 00 
  4036f0:	66 66 2e 0f 1f 84 00 	data16 nopw %cs:0x0(%rax,%rax,1)
  4036f7:	00 00 00 00 
  4036fb:	66 66 2e 0f 1f 84 00 	data16 nopw %cs:0x0(%rax,%rax,1)
  403702:	00 00 00 00 
  403706:	66 66 2e 0f 1f 84 00 	data16 nopw %cs:0x0(%rax,%rax,1)
  40370d:	00 00 00 00 
  403711:	66 66 2e 0f 1f 84 00 	data16 nopw %cs:0x0(%rax,%rax,1)
  403718:	00 00 00 00 
  40371c:	66 66 2e 0f 1f 84 00 	data16 nopw %cs:0x0(%rax,%rax,1)
  403723:	00 00 00 00 
  403727:	66 66 2e 0f 1f 84 00 	data16 nopw %cs:0x0(%rax,%rax,1)
  40372e:	00 00 00 00 
  403732:	66 66 2e 0f 1f 84 00 	data16 nopw %cs:0x0(%rax,%rax,1)
  403739:	00 00 00 00 
  40373d:	66 66 2e 0f 1f 84 00 	data16 nopw %cs:0x0(%rax,%rax,1)
  403744:	00 00 00 00 
  403748:	66 66 2e 0f 1f 84 00 	data16 nopw %cs:0x0(%rax,%rax,1)
  40374f:	00 00 00 00 
  403753:	66 66 2e 0f 1f 84 00 	data16 nopw %cs:0x0(%rax,%rax,1)
  40375a:	00 00 00 00 
  40375e:	66 66 2e 0f 1f 84 00 	data16 nopw %cs:0x0(%rax,%rax,1)
  403765:	00 00 00 00 
  403769:	66 66 2e 0f 1f 84 00 	data16 nopw %cs:0x0(%rax,%rax,1)
  403770:	00 00 00 00 
  403774:	66 66 2e 0f 1f 84 00 	data16 nopw %cs:0x0(%rax,%rax,1)
  40377b:	00 00 00 00 
  40377f:	66 66 2e 0f 1f 84 00 	data16 nopw %cs:0x0(%rax,%rax,1)
  403786:	00 00 00 00 
  40378a:	66 66 2e 0f 1f 84 00 	data16 nopw %cs:0x0(%rax,%rax,1)
  403791:	00 00 00 00 
  403795:	66 66 2e 0f 1f 84 00 	data16 nopw %cs:0x0(%rax,%rax,1)
  40379c:	00 00 00 00 
  4037a0:	66 66 2e 0f 1f 84 00 	data16 nopw %cs:0x0(%rax,%rax,1)
  4037a7:	00 00 00 00 
  4037ab:	66 66 2e 0f 1f 84 00 	data16 nopw %cs:0x0(%rax,%rax,1)
  4037b2:	00 00 00 00 
  4037b6:	66 66 2e 0f 1f 84 00 	data16 nopw %cs:0x0(%rax,%rax,1)
  4037bd:	00 00 00 00 
  4037c1:	66 66 2e 0f 1f 84 00 	data16 nopw %cs:0x0(%rax,%rax,1)
  4037c8:	00 00 00 00 
  4037cc:	66 66 2e 0f 1f 84 00 	data16 nopw %cs:0x0(%rax,%rax,1)
  4037d3:	00 00 00 00 
  4037d7:	66 66 2e 0f 1f 84 00 	data16 nopw %cs:0x0(%rax,%rax,1)
  4037de:	00 00 00 00 
  4037e2:	66 66 2e 0f 1f 84 00 	data16 nopw %cs:0x0(%rax,%rax,1)
  4037e9:	00 00 00 00 
  4037ed:	66 66 2e 0f 1f 84 00 	data16 nopw %cs:0x0(%rax,%rax,1)
  4037f4:	00 00 00 00 
  4037f8:	66 66 2e 0f 1f 84 00 	data16 nopw %cs:0x0(%rax,%rax,1)
  4037ff:	00 00 00 00 
  403803:	66 66 2e 0f 1f 84 00 	data16 nopw %cs:0x0(%rax,%rax,1)
  40380a:	00 00 00 00 
  40380e:	66 66 2e 0f 1f 84 00 	data16 nopw %cs:0x0(%rax,%rax,1)
  403815:	00 00 00 00 
  403819:	66 66 2e 0f 1f 84 00 	data16 nopw %cs:0x0(%rax,%rax,1)
  403820:	00 00 00 00 
  403824:	66 66 2e 0f 1f 84 00 	data16 nopw %cs:0x0(%rax,%rax,1)
  40382b:	00 00 00 00 
  40382f:	66 66 2e 0f 1f 84 00 	data16 nopw %cs:0x0(%rax,%rax,1)
  403836:	00 00 00 00 
  40383a:	66 66 2e 0f 1f 84 00 	data16 nopw %cs:0x0(%rax,%rax,1)
  403841:	00 00 00 00 
  403845:	66 66 2e 0f 1f 84 00 	data16 nopw %cs:0x0(%rax,%rax,1)
  40384c:	00 00 00 00 
  403850:	66 66 2e 0f 1f 84 00 	data16 nopw %cs:0x0(%rax,%rax,1)
  403857:	00 00 00 00 
  40385b:	66 66 2e 0f 1f 84 00 	data16 nopw %cs:0x0(%rax,%rax,1)
  403862:	00 00 00 00 
  403866:	66 66 2e 0f 1f 84 00 	data16 nopw %cs:0x0(%rax,%rax,1)
  40386d:	00 00 00 00 
  403871:	66 66 2e 0f 1f 84 00 	data16 nopw %cs:0x0(%rax,%rax,1)
  403878:	00 00 00 00 
  40387c:	66 66 2e 0f 1f 84 00 	data16 nopw %cs:0x0(%rax,%rax,1)
  403883:	00 00 00 00 
  403887:	66 66 2e 0f 1f 84 00 	data16 nopw %cs:0x0(%rax,%rax,1)
  40388e:	00 00 00 00 
  403892:	66 66 2e 0f 1f 84 00 	data16 nopw %cs:0x0(%rax,%rax,1)
  403899:	00 00 00 00 
  40389d:	66 66 2e 0f 1f 84 00 	data16 nopw %cs:0x0(%rax,%rax,1)
  4038a4:	00 00 00 00 
  4038a8:	66 66 2e 0f 1f 84 00 	data16 nopw %cs:0x0(%rax,%rax,1)
  4038af:	00 00 00 00 
  4038b3:	66 66 2e 0f 1f 84 00 	data16 nopw %cs:0x0(%rax,%rax,1)
  4038ba:	00 00 00 00 
  4038be:	66 66 2e 0f 1f 84 00 	data16 nopw %cs:0x0(%rax,%rax,1)
  4038c5:	00 00 00 00 
  4038c9:	66 66 2e 0f 1f 84 00 	data16 nopw %cs:0x0(%rax,%rax,1)
  4038d0:	00 00 00 00 
  4038d4:	66 66 2e 0f 1f 84 00 	data16 nopw %cs:0x0(%rax,%rax,1)
  4038db:	00 00 00 00 
  4038df:	66 66 2e 0f 1f 84 00 	data16 nopw %cs:0x0(%rax,%rax,1)
  4038e6:	00 00 00 00 
  4038ea:	66 66 2e 0f 1f 84 00 	data16 nopw %cs:0x0(%rax,%rax,1)
  4038f1:	00 00 00 00 
  4038f5:	66 66 2e 0f 1f 84 00 	data16 nopw %cs:0x0(%rax,%rax,1)
  4038fc:	00 00 00 00 
  403900:	66 66 2e 0f 1f 84 00 	data16 nopw %cs:0x0(%rax,%rax,1)
  403907:	00 00 00 00 
  40390b:	66 66 2e 0f 1f 84 00 	data16 nopw %cs:0x0(%rax,%rax,1)
  403912:	00 00 00 00 
  403916:	66 66 2e 0f 1f 84 00 	data16 nopw %cs:0x0(%rax,%rax,1)
  40391d:	00 00 00 00 
  403921:	66 66 2e 0f 1f 84 00 	data16 nopw %cs:0x0(%rax,%rax,1)
  403928:	00 00 00 00 
  40392c:	66 66 2e 0f 1f 84 00 	data16 nopw %cs:0x0(%rax,%rax,1)
  403933:	00 00 00 00 
  403937:	66 66 2e 0f 1f 84 00 	data16 nopw %cs:0x0(%rax,%rax,1)
  40393e:	00 00 00 00 
  403942:	66 66 2e 0f 1f 84 00 	data16 nopw %cs:0x0(%rax,%rax,1)
  403949:	00 00 00 00 
  40394d:	66 66 2e 0f 1f 84 00 	data16 nopw %cs:0x0(%rax,%rax,1)
  403954:	00 00 00 00 
  403958:	66 66 2e 0f 1f 84 00 	data16 nopw %cs:0x0(%rax,%rax,1)
  40395f:	00 00 00 00 
  403963:	66 66 2e 0f 1f 84 00 	data16 nopw %cs:0x0(%rax,%rax,1)
  40396a:	00 00 00 00 
  40396e:	66 66 2e 0f 1f 84 00 	data16 nopw %cs:0x0(%rax,%rax,1)
  403975:	00 00 00 00 
  403979:	66 66 2e 0f 1f 84 00 	data16 nopw %cs:0x0(%rax,%rax,1)
  403980:	00 00 00 00 
  403984:	66 66 2e 0f 1f 84 00 	data16 nopw %cs:0x0(%rax,%rax,1)
  40398b:	00 00 00 00 
  40398f:	66 66 2e 0f 1f 84 00 	data16 nopw %cs:0x0(%rax,%rax,1)
  403996:	00 00 00 00 
  40399a:	66 66 2e 0f 1f 84 00 	data16 nopw %cs:0x0(%rax,%rax,1)
  4039a1:	00 00 00 00 
  4039a5:	66 66 2e 0f 1f 84 00 	data16 nopw %cs:0x0(%rax,%rax,1)
  4039ac:	00 00 00 00 
  4039b0:	66 66 2e 0f 1f 84 00 	data16 nopw %cs:0x0(%rax,%rax,1)
  4039b7:	00 00 00 00 
  4039bb:	66 66 2e 0f 1f 84 00 	data16 nopw %cs:0x0(%rax,%rax,1)
  4039c2:	00 00 00 00 
  4039c6:	66 66 2e 0f 1f 84 00 	data16 nopw %cs:0x0(%rax,%rax,1)
  4039cd:	00 00 00 00 
  4039d1:	66 66 2e 0f 1f 84 00 	data16 nopw %cs:0x0(%rax,%rax,1)
  4039d8:	00 00 00 00 
  4039dc:	66 66 2e 0f 1f 84 00 	data16 nopw %cs:0x0(%rax,%rax,1)
  4039e3:	00 00 00 00 
  4039e7:	66 66 2e 0f 1f 84 00 	data16 nopw %cs:0x0(%rax,%rax,1)
  4039ee:	00 00 00 00 
  4039f2:	66 66 2e 0f 1f 84 00 	data16 nopw %cs:0x0(%rax,%rax,1)
  4039f9:	00 00 00 00 
  4039fd:	66 66 2e 0f 1f 84 00 	data16 nopw %cs:0x0(%rax,%rax,1)
  403a04:	00 00 00 00 
  403a08:	66 66 2e 0f 1f 84 00 	data16 nopw %cs:0x0(%rax,%rax,1)
  403a0f:	00 00 00 00 
  403a13:	66 66 2e 0f 1f 84 00 	data16 nopw %cs:0x0(%rax,%rax,1)
  403a1a:	00 00 00 00 
  403a1e:	66 66 2e 0f 1f 84 00 	data16 nopw %cs:0x0(%rax,%rax,1)
  403a25:	00 00 00 00 
  403a29:	66 66 2e 0f 1f 84 00 	data16 nopw %cs:0x0(%rax,%rax,1)
  403a30:	00 00 00 00 
  403a34:	66 66 2e 0f 1f 84 00 	data16 nopw %cs:0x0(%rax,%rax,1)
  403a3b:	00 00 00 00 
  403a3f:	66 66 2e 0f 1f 84 00 	data16 nopw %cs:0x0(%rax,%rax,1)
  403a46:	00 00 00 00 
  403a4a:	66 66 2e 0f 1f 84 00 	data16 nopw %cs:0x0(%rax,%rax,1)
  403a51:	00 00 00 00 
  403a55:	66 66 2e 0f 1f 84 00 	data16 nopw %cs:0x0(%rax,%rax,1)
  403a5c:	00 00 00 00 
  403a60:	66 66 2e 0f 1f 84 00 	data16 nopw %cs:0x0(%rax,%rax,1)
  403a67:	00 00 00 00 
  403a6b:	66 66 2e 0f 1f 84 00 	data16 nopw %cs:0x0(%rax,%rax,1)
  403a72:	00 00 00 00 
  403a76:	66 66 2e 0f 1f 84 00 	data16 nopw %cs:0x0(%rax,%rax,1)
  403a7d:	00 00 00 00 
  403a81:	66 66 2e 0f 1f 84 00 	data16 nopw %cs:0x0(%rax,%rax,1)
  403a88:	00 00 00 00 
  403a8c:	66 66 2e 0f 1f 84 00 	data16 nopw %cs:0x0(%rax,%rax,1)
  403a93:	00 00 00 00 
  403a97:	66 66 2e 0f 1f 84 00 	data16 nopw %cs:0x0(%rax,%rax,1)
  403a9e:	00 00 00 00 
  403aa2:	66 66 2e 0f 1f 84 00 	data16 nopw %cs:0x0(%rax,%rax,1)
  403aa9:	00 00 00 00 
  403aad:	66 66 2e 0f 1f 84 00 	data16 nopw %cs:0x0(%rax,%rax,1)
  403ab4:	00 00 00 00 
  403ab8:	66 66 2e 0f 1f 84 00 	data16 nopw %cs:0x0(%rax,%rax,1)
  403abf:	00 00 00 00 
  403ac3:	66 66 2e 0f 1f 84 00 	data16 nopw %cs:0x0(%rax,%rax,1)
  403aca:	00 00 00 00 
  403ace:	66 66 2e 0f 1f 84 00 	data16 nopw %cs:0x0(%rax,%rax,1)
  403ad5:	00 00 00 00 
  403ad9:	66 66 2e 0f 1f 84 00 	data16 nopw %cs:0x0(%rax,%rax,1)
  403ae0:	00 00 00 00 
  403ae4:	66 66 2e 0f 1f 84 00 	data16 nopw %cs:0x0(%rax,%rax,1)
  403aeb:	00 00 00 00 
  403aef:	66 66 2e 0f 1f 84 00 	data16 nopw %cs:0x0(%rax,%rax,1)
  403af6:	00 00 00 00 
  403afa:	66 66 2e 0f 1f 84 00 	data16 nopw %cs:0x0(%rax,%rax,1)
  403b01:	00 00 00 00 
  403b05:	66 66 2e 0f 1f 84 00 	data16 nopw %cs:0x0(%rax,%rax,1)
  403b0c:	00 00 00 00 
  403b10:	66 66 2e 0f 1f 84 00 	data16 nopw %cs:0x0(%rax,%rax,1)
  403b17:	00 00 00 00 
  403b1b:	66 66 2e 0f 1f 84 00 	data16 nopw %cs:0x0(%rax,%rax,1)
  403b22:	00 00 00 00 
  403b26:	66 66 2e 0f 1f 84 00 	data16 nopw %cs:0x0(%rax,%rax,1)
  403b2d:	00 00 00 00 
  403b31:	66 66 2e 0f 1f 84 00 	data16 nopw %cs:0x0(%rax,%rax,1)
  403b38:	00 00 00 00 
  403b3c:	66 66 2e 0f 1f 84 00 	data16 nopw %cs:0x0(%rax,%rax,1)
  403b43:	00 00 00 00 
  403b47:	66 66 2e 0f 1f 84 00 	data16 nopw %cs:0x0(%rax,%rax,1)
  403b4e:	00 00 00 00 
  403b52:	66 66 2e 0f 1f 84 00 	data16 nopw %cs:0x0(%rax,%rax,1)
  403b59:	00 00 00 00 
  403b5d:	66 66 2e 0f 1f 84 00 	data16 nopw %cs:0x0(%rax,%rax,1)
  403b64:	00 00 00 00 
  403b68:	66 66 2e 0f 1f 84 00 	data16 nopw %cs:0x0(%rax,%rax,1)
  403b6f:	00 00 00 00 
  403b73:	66 66 2e 0f 1f 84 00 	data16 nopw %cs:0x0(%rax,%rax,1)
  403b7a:	00 00 00 00 
  403b7e:	66 66 2e 0f 1f 84 00 	data16 nopw %cs:0x0(%rax,%rax,1)
  403b85:	00 00 00 00 
  403b89:	66 66 2e 0f 1f 84 00 	data16 nopw %cs:0x0(%rax,%rax,1)
  403b90:	00 00 00 00 
  403b94:	66 66 2e 0f 1f 84 00 	data16 nopw %cs:0x0(%rax,%rax,1)
  403b9b:	00 00 00 00 
  403b9f:	66 66 2e 0f 1f 84 00 	data16 nopw %cs:0x0(%rax,%rax,1)
  403ba6:	00 00 00 00 
  403baa:	66 66 2e 0f 1f 84 00 	data16 nopw %cs:0x0(%rax,%rax,1)
  403bb1:	00 00 00 00 
  403bb5:	66 66 2e 0f 1f 84 00 	data16 nopw %cs:0x0(%rax,%rax,1)
  403bbc:	00 00 00 00 
  403bc0:	66 66 2e 0f 1f 84 00 	data16 nopw %cs:0x0(%rax,%rax,1)
  403bc7:	00 00 00 00 
  403bcb:	66 66 2e 0f 1f 84 00 	data16 nopw %cs:0x0(%rax,%rax,1)
  403bd2:	00 00 00 00 
  403bd6:	66 66 2e 0f 1f 84 00 	data16 nopw %cs:0x0(%rax,%rax,1)
  403bdd:	00 00 00 00 
  403be1:	66 66 2e 0f 1f 84 00 	data16 nopw %cs:0x0(%rax,%rax,1)
  403be8:	00 00 00 00 
  403bec:	66 66 2e 0f 1f 84 00 	data16 nopw %cs:0x0(%rax,%rax,1)
  403bf3:	00 00 00 00 
  403bf7:	66 66 2e 0f 1f 84 00 	data16 nopw %cs:0x0(%rax,%rax,1)
  403bfe:	00 00 00 00 
  403c02:	66 66 2e 0f 1f 84 00 	data16 nopw %cs:0x0(%rax,%rax,1)
  403c09:	00 00 00 00 
  403c0d:	66 66 2e 0f 1f 84 00 	data16 nopw %cs:0x0(%rax,%rax,1)
  403c14:	00 00 00 00 
  403c18:	66 66 2e 0f 1f 84 00 	data16 nopw %cs:0x0(%rax,%rax,1)
  403c1f:	00 00 00 00 
  403c23:	66 66 2e 0f 1f 84 00 	data16 nopw %cs:0x0(%rax,%rax,1)
  403c2a:	00 00 00 00 
  403c2e:	66 66 2e 0f 1f 84 00 	data16 nopw %cs:0x0(%rax,%rax,1)
  403c35:	00 00 00 00 
  403c39:	66 66 2e 0f 1f 84 00 	data16 nopw %cs:0x0(%rax,%rax,1)
  403c40:	00 00 00 00 
  403c44:	66 66 2e 0f 1f 84 00 	data16 nopw %cs:0x0(%rax,%rax,1)
  403c4b:	00 00 00 00 
  403c4f:	66 66 2e 0f 1f 84 00 	data16 nopw %cs:0x0(%rax,%rax,1)
  403c56:	00 00 00 00 
  403c5a:	66 66 2e 0f 1f 84 00 	data16 nopw %cs:0x0(%rax,%rax,1)
  403c61:	00 00 00 00 
  403c65:	66 66 2e 0f 1f 84 00 	data16 nopw %cs:0x0(%rax,%rax,1)
  403c6c:	00 00 00 00 
  403c70:	66 66 2e 0f 1f 84 00 	data16 nopw %cs:0x0(%rax,%rax,1)
  403c77:	00 00 00 00 
  403c7b:	66 66 2e 0f 1f 84 00 	data16 nopw %cs:0x0(%rax,%rax,1)
  403c82:	00 00 00 00 
  403c86:	66 66 2e 0f 1f 84 00 	data16 nopw %cs:0x0(%rax,%rax,1)
  403c8d:	00 00 00 00 
  403c91:	66 66 2e 0f 1f 84 00 	data16 nopw %cs:0x0(%rax,%rax,1)
  403c98:	00 00 00 00 
  403c9c:	66 66 2e 0f 1f 84 00 	data16 nopw %cs:0x0(%rax,%rax,1)
  403ca3:	00 00 00 00 
  403ca7:	66 66 2e 0f 1f 84 00 	data16 nopw %cs:0x0(%rax,%rax,1)
  403cae:	00 00 00 00 
  403cb2:	66 66 2e 0f 1f 84 00 	data16 nopw %cs:0x0(%rax,%rax,1)
  403cb9:	00 00 00 00 
  403cbd:	66 66 2e 0f 1f 84 00 	data16 nopw %cs:0x0(%rax,%rax,1)
  403cc4:	00 00 00 00 
  403cc8:	66 66 2e 0f 1f 84 00 	data16 nopw %cs:0x0(%rax,%rax,1)
  403ccf:	00 00 00 00 
  403cd3:	66 66 2e 0f 1f 84 00 	data16 nopw %cs:0x0(%rax,%rax,1)
  403cda:	00 00 00 00 
  403cde:	66 66 2e 0f 1f 84 00 	data16 nopw %cs:0x0(%rax,%rax,1)
  403ce5:	00 00 00 00 
  403ce9:	66 66 2e 0f 1f 84 00 	data16 nopw %cs:0x0(%rax,%rax,1)
  403cf0:	00 00 00 00 
  403cf4:	66 66 2e 0f 1f 84 00 	data16 nopw %cs:0x0(%rax,%rax,1)
  403cfb:	00 00 00 00 
  403cff:	66 66 2e 0f 1f 84 00 	data16 nopw %cs:0x0(%rax,%rax,1)
  403d06:	00 00 00 00 
  403d0a:	66 66 2e 0f 1f 84 00 	data16 nopw %cs:0x0(%rax,%rax,1)
  403d11:	00 00 00 00 
  403d15:	66 66 2e 0f 1f 84 00 	data16 nopw %cs:0x0(%rax,%rax,1)
  403d1c:	00 00 00 00 
  403d20:	66 66 2e 0f 1f 84 00 	data16 nopw %cs:0x0(%rax,%rax,1)
  403d27:	00 00 00 00 
  403d2b:	66 66 2e 0f 1f 84 00 	data16 nopw %cs:0x0(%rax,%rax,1)
  403d32:	00 00 00 00 
  403d36:	66 66 2e 0f 1f 84 00 	data16 nopw %cs:0x0(%rax,%rax,1)
  403d3d:	00 00 00 00 
  403d41:	66 66 2e 0f 1f 84 00 	data16 nopw %cs:0x0(%rax,%rax,1)
  403d48:	00 00 00 00 
  403d4c:	66 66 2e 0f 1f 84 00 	data16 nopw %cs:0x0(%rax,%rax,1)
  403d53:	00 00 00 00 
  403d57:	66 66 2e 0f 1f 84 00 	data16 nopw %cs:0x0(%rax,%rax,1)
  403d5e:	00 00 00 00 
  403d62:	66 66 2e 0f 1f 84 00 	data16 nopw %cs:0x0(%rax,%rax,1)
  403d69:	00 00 00 00 
  403d6d:	66 66 2e 0f 1f 84 00 	data16 nopw %cs:0x0(%rax,%rax,1)
  403d74:	00 00 00 00 
  403d78:	66 66 2e 0f 1f 84 00 	data16 nopw %cs:0x0(%rax,%rax,1)
  403d7f:	00 00 00 00 
  403d83:	66 66 2e 0f 1f 84 00 	data16 nopw %cs:0x0(%rax,%rax,1)
  403d8a:	00 00 00 00 
  403d8e:	66 66 2e 0f 1f 84 00 	data16 nopw %cs:0x0(%rax,%rax,1)
  403d95:	00 00 00 00 
  403d99:	66 66 2e 0f 1f 84 00 	data16 nopw %cs:0x0(%rax,%rax,1)
  403da0:	00 00 00 00 
  403da4:	66 66 2e 0f 1f 84 00 	data16 nopw %cs:0x0(%rax,%rax,1)
  403dab:	00 00 00 00 
  403daf:	66 66 2e 0f 1f 84 00 	data16 nopw %cs:0x0(%rax,%rax,1)
  403db6:	00 00 00 00 
  403dba:	66 66 2e 0f 1f 84 00 	data16 nopw %cs:0x0(%rax,%rax,1)
  403dc1:	00 00 00 00 
  403dc5:	66 66 2e 0f 1f 84 00 	data16 nopw %cs:0x0(%rax,%rax,1)
  403dcc:	00 00 00 00 
  403dd0:	66 66 2e 0f 1f 84 00 	data16 nopw %cs:0x0(%rax,%rax,1)
  403dd7:	00 00 00 00 
  403ddb:	66 66 2e 0f 1f 84 00 	data16 nopw %cs:0x0(%rax,%rax,1)
  403de2:	00 00 00 00 
  403de6:	66 66 2e 0f 1f 84 00 	data16 nopw %cs:0x0(%rax,%rax,1)
  403ded:	00 00 00 00 
  403df1:	66 66 2e 0f 1f 84 00 	data16 nopw %cs:0x0(%rax,%rax,1)
  403df8:	00 00 00 00 
  403dfc:	66 66 2e 0f 1f 84 00 	data16 nopw %cs:0x0(%rax,%rax,1)
  403e03:	00 00 00 00 
  403e07:	66 66 2e 0f 1f 84 00 	data16 nopw %cs:0x0(%rax,%rax,1)
  403e0e:	00 00 00 00 
  403e12:	66 66 2e 0f 1f 84 00 	data16 nopw %cs:0x0(%rax,%rax,1)
  403e19:	00 00 00 00 
  403e1d:	66 66 2e 0f 1f 84 00 	data16 nopw %cs:0x0(%rax,%rax,1)
  403e24:	00 00 00 00 
  403e28:	66 66 2e 0f 1f 84 00 	data16 nopw %cs:0x0(%rax,%rax,1)
  403e2f:	00 00 00 00 
  403e33:	66 66 2e 0f 1f 84 00 	data16 nopw %cs:0x0(%rax,%rax,1)
  403e3a:	00 00 00 00 
  403e3e:	66 66 2e 0f 1f 84 00 	data16 nopw %cs:0x0(%rax,%rax,1)
  403e45:	00 00 00 00 
  403e49:	66 66 2e 0f 1f 84 00 	data16 nopw %cs:0x0(%rax,%rax,1)
  403e50:	00 00 00 00 
  403e54:	66 66 2e 0f 1f 84 00 	data16 nopw %cs:0x0(%rax,%rax,1)
  403e5b:	00 00 00 00 
  403e5f:	66 66 2e 0f 1f 84 00 	data16 nopw %cs:0x0(%rax,%rax,1)
  403e66:	00 00 00 00 
  403e6a:	66 66 2e 0f 1f 84 00 	data16 nopw %cs:0x0(%rax,%rax,1)
  403e71:	00 00 00 00 
  403e75:	66 66 2e 0f 1f 84 00 	data16 nopw %cs:0x0(%rax,%rax,1)
  403e7c:	00 00 00 00 
  403e80:	66 66 2e 0f 1f 84 00 	data16 nopw %cs:0x0(%rax,%rax,1)
  403e87:	00 00 00 00 
  403e8b:	66 66 2e 0f 1f 84 00 	data16 nopw %cs:0x0(%rax,%rax,1)
  403e92:	00 00 00 00 
  403e96:	66 66 2e 0f 1f 84 00 	data16 nopw %cs:0x0(%rax,%rax,1)
  403e9d:	00 00 00 00 
  403ea1:	66 66 2e 0f 1f 84 00 	data16 nopw %cs:0x0(%rax,%rax,1)
  403ea8:	00 00 00 00 
  403eac:	66 66 2e 0f 1f 84 00 	data16 nopw %cs:0x0(%rax,%rax,1)
  403eb3:	00 00 00 00 
  403eb7:	66 66 2e 0f 1f 84 00 	data16 nopw %cs:0x0(%rax,%rax,1)
  403ebe:	00 00 00 00 
  403ec2:	66 66 2e 0f 1f 84 00 	data16 nopw %cs:0x0(%rax,%rax,1)
  403ec9:	00 00 00 00 
  403ecd:	66 66 2e 0f 1f 84 00 	data16 nopw %cs:0x0(%rax,%rax,1)
  403ed4:	00 00 00 00 
  403ed8:	66 66 2e 0f 1f 84 00 	data16 nopw %cs:0x0(%rax,%rax,1)
  403edf:	00 00 00 00 
  403ee3:	66 66 2e 0f 1f 84 00 	data16 nopw %cs:0x0(%rax,%rax,1)
  403eea:	00 00 00 00 
  403eee:	66 66 2e 0f 1f 84 00 	data16 nopw %cs:0x0(%rax,%rax,1)
  403ef5:	00 00 00 00 
  403ef9:	66 66 2e 0f 1f 84 00 	data16 nopw %cs:0x0(%rax,%rax,1)
  403f00:	00 00 00 00 
  403f04:	66 66 2e 0f 1f 84 00 	data16 nopw %cs:0x0(%rax,%rax,1)
  403f0b:	00 00 00 00 
  403f0f:	66 66 2e 0f 1f 84 00 	data16 nopw %cs:0x0(%rax,%rax,1)
  403f16:	00 00 00 00 
  403f1a:	66 66 2e 0f 1f 84 00 	data16 nopw %cs:0x0(%rax,%rax,1)
  403f21:	00 00 00 00 
  403f25:	66 66 2e 0f 1f 84 00 	data16 nopw %cs:0x0(%rax,%rax,1)
  403f2c:	00 00 00 00 
  403f30:	66 66 2e 0f 1f 84 00 	data16 nopw %cs:0x0(%rax,%rax,1)
  403f37:	00 00 00 00 
  403f3b:	66 66 2e 0f 1f 84 00 	data16 nopw %cs:0x0(%rax,%rax,1)
  403f42:	00 00 00 00 
  403f46:	66 66 2e 0f 1f 84 00 	data16 nopw %cs:0x0(%rax,%rax,1)
  403f4d:	00 00 00 00 
  403f51:	66 66 2e 0f 1f 84 00 	data16 nopw %cs:0x0(%rax,%rax,1)
  403f58:	00 00 00 00 
  403f5c:	66 66 2e 0f 1f 84 00 	data16 nopw %cs:0x0(%rax,%rax,1)
  403f63:	00 00 00 00 
  403f67:	66 66 2e 0f 1f 84 00 	data16 nopw %cs:0x0(%rax,%rax,1)
  403f6e:	00 00 00 00 
  403f72:	66 66 2e 0f 1f 84 00 	data16 nopw %cs:0x0(%rax,%rax,1)
  403f79:	00 00 00 00 
  403f7d:	66 66 2e 0f 1f 84 00 	data16 nopw %cs:0x0(%rax,%rax,1)
  403f84:	00 00 00 00 
  403f88:	66 66 2e 0f 1f 84 00 	data16 nopw %cs:0x0(%rax,%rax,1)
  403f8f:	00 00 00 00 
  403f93:	66 66 2e 0f 1f 84 00 	data16 nopw %cs:0x0(%rax,%rax,1)
  403f9a:	00 00 00 00 
  403f9e:	66 66 2e 0f 1f 84 00 	data16 nopw %cs:0x0(%rax,%rax,1)
  403fa5:	00 00 00 00 
  403fa9:	66 66 2e 0f 1f 84 00 	data16 nopw %cs:0x0(%rax,%rax,1)
  403fb0:	00 00 00 00 
  403fb4:	66 66 2e 0f 1f 84 00 	data16 nopw %cs:0x0(%rax,%rax,1)
  403fbb:	00 00 00 00 
  403fbf:	66 66 2e 0f 1f 84 00 	data16 nopw %cs:0x0(%rax,%rax,1)
  403fc6:	00 00 00 00 
  403fca:	66 66 2e 0f 1f 84 00 	data16 nopw %cs:0x0(%rax,%rax,1)
  403fd1:	00 00 00 00 
  403fd5:	66 66 2e 0f 1f 84 00 	data16 nopw %cs:0x0(%rax,%rax,1)
  403fdc:	00 00 00 00 
  403fe0:	66 66 2e 0f 1f 84 00 	data16 nopw %cs:0x0(%rax,%rax,1)
  403fe7:	00 00 00 00 
  403feb:	66 66 2e 0f 1f 84 00 	data16 nopw %cs:0x0(%rax,%rax,1)
  403ff2:	00 00 00 00 
  403ff6:	66 2e 0f 1f 84 00 00 	nopw   %cs:0x0(%rax,%rax,1)
  403ffd:	00 00 00 

0000000000404000 <touch2>:
  404000:	48 83 ec 08          	sub    $0x8,%rsp
  404004:	89 fe                	mov    %edi,%esi
  404006:	c7 05 18 6a 00 00 02 	movl   $0x2,0x6a18(%rip)        # 40aa28 <vlevel>
  40400d:	00 00 00 
  404010:	39 3d 1a 6a 00 00    	cmp    %edi,0x6a1a(%rip)        # 40aa30 <cookie>
  404016:	74 23                	je     40403b <touch2+0x3b>
  404018:	bf 18 84 40 00       	mov    $0x408418,%edi
  40401d:	b8 00 00 00 00       	mov    $0x0,%eax
  404022:	e8 a9 d0 ff ff       	callq  4010d0 <printf@plt>
  404027:	bf 02 00 00 00       	mov    $0x2,%edi
  40402c:	e8 95 13 00 00       	callq  4053c6 <fail>
  404031:	bf 00 00 00 00       	mov    $0x0,%edi
  404036:	e8 f5 d1 ff ff       	callq  401230 <exit@plt>
  40403b:	bf f0 83 40 00       	mov    $0x4083f0,%edi
  404040:	b8 00 00 00 00       	mov    $0x0,%eax
  404045:	e8 86 d0 ff ff       	callq  4010d0 <printf@plt>
  40404a:	bf 02 00 00 00       	mov    $0x2,%edi
  40404f:	e8 c0 12 00 00       	callq  405314 <validate>
  404054:	eb db                	jmp    404031 <touch2+0x31>

0000000000404056 <hexmatch>:
  404056:	41 54                	push   %r12
  404058:	55                   	push   %rbp
  404059:	53                   	push   %rbx
  40405a:	48 83 ec 70          	sub    $0x70,%rsp
  40405e:	89 fd                	mov    %edi,%ebp
  404060:	48 89 f3             	mov    %rsi,%rbx
  404063:	e8 38 d1 ff ff       	callq  4011a0 <random@plt>
  404068:	48 89 c1             	mov    %rax,%rcx
  40406b:	48 ba 0b d7 a3 70 3d 	movabs $0xa3d70a3d70a3d70b,%rdx
  404072:	0a d7 a3 
  404075:	48 f7 ea             	imul   %rdx
  404078:	48 01 ca             	add    %rcx,%rdx
  40407b:	48 c1 fa 06          	sar    $0x6,%rdx
  40407f:	48 89 c8             	mov    %rcx,%rax
  404082:	48 c1 f8 3f          	sar    $0x3f,%rax
  404086:	48 29 c2             	sub    %rax,%rdx
  404089:	48 8d 04 92          	lea    (%rdx,%rdx,4),%rax
  40408d:	48 8d 04 80          	lea    (%rax,%rax,4),%rax
  404091:	48 c1 e0 02          	shl    $0x2,%rax
  404095:	48 29 c1             	sub    %rax,%rcx
  404098:	4c 8d 24 0c          	lea    (%rsp,%rcx,1),%r12
  40409c:	89 ea                	mov    %ebp,%edx
  40409e:	be eb 83 40 00       	mov    $0x4083eb,%esi
  4040a3:	4c 89 e7             	mov    %r12,%rdi
  4040a6:	b8 00 00 00 00       	mov    $0x0,%eax
  4040ab:	e8 70 d1 ff ff       	callq  401220 <sprintf@plt>
  4040b0:	ba 09 00 00 00       	mov    $0x9,%edx
  4040b5:	4c 89 e6             	mov    %r12,%rsi
  4040b8:	48 89 df             	mov    %rbx,%rdi
  4040bb:	e8 b0 cf ff ff       	callq  401070 <strncmp@plt>
  4040c0:	85 c0                	test   %eax,%eax
  4040c2:	0f 94 c0             	sete   %al
  4040c5:	0f b6 c0             	movzbl %al,%eax
  4040c8:	48 83 c4 70          	add    $0x70,%rsp
  4040cc:	5b                   	pop    %rbx
  4040cd:	5d                   	pop    %rbp
  4040ce:	41 5c                	pop    %r12
  4040d0:	c3                   	retq   
  4040d1:	e9 2a 0f 00 00       	jmpq   405000 <touch3>
  4040d6:	66 66 2e 0f 1f 84 00 	data16 nopw %cs:0x0(%rax,%rax,1)
  4040dd:	00 00 00 00 
  4040e1:	66 66 2e 0f 1f 84 00 	data16 nopw %cs:0x0(%rax,%rax,1)
  4040e8:	00 00 00 00 
  4040ec:	66 66 2e 0f 1f 84 00 	data16 nopw %cs:0x0(%rax,%rax,1)
  4040f3:	00 00 00 00 
  4040f7:	66 66 2e 0f 1f 84 00 	data16 nopw %cs:0x0(%rax,%rax,1)
  4040fe:	00 00 00 00 
  404102:	66 66 2e 0f 1f 84 00 	data16 nopw %cs:0x0(%rax,%rax,1)
  404109:	00 00 00 00 
  40410d:	66 66 2e 0f 1f 84 00 	data16 nopw %cs:0x0(%rax,%rax,1)
  404114:	00 00 00 00 
  404118:	66 66 2e 0f 1f 84 00 	data16 nopw %cs:0x0(%rax,%rax,1)
  40411f:	00 00 00 00 
  404123:	66 66 2e 0f 1f 84 00 	data16 nopw %cs:0x0(%rax,%rax,1)
  40412a:	00 00 00 00 
  40412e:	66 66 2e 0f 1f 84 00 	data16 nopw %cs:0x0(%rax,%rax,1)
  404135:	00 00 00 00 
  404139:	66 66 2e 0f 1f 84 00 	data16 nopw %cs:0x0(%rax,%rax,1)
  404140:	00 00 00 00 
  404144:	66 66 2e 0f 1f 84 00 	data16 nopw %cs:0x0(%rax,%rax,1)
  40414b:	00 00 00 00 
  40414f:	66 66 2e 0f 1f 84 00 	data16 nopw %cs:0x0(%rax,%rax,1)
  404156:	00 00 00 00 
  40415a:	66 66 2e 0f 1f 84 00 	data16 nopw %cs:0x0(%rax,%rax,1)
  404161:	00 00 00 00 
  404165:	66 66 2e 0f 1f 84 00 	data16 nopw %cs:0x0(%rax,%rax,1)
  40416c:	00 00 00 00 
  404170:	66 66 2e 0f 1f 84 00 	data16 nopw %cs:0x0(%rax,%rax,1)
  404177:	00 00 00 00 
  40417b:	66 66 2e 0f 1f 84 00 	data16 nopw %cs:0x0(%rax,%rax,1)
  404182:	00 00 00 00 
  404186:	66 66 2e 0f 1f 84 00 	data16 nopw %cs:0x0(%rax,%rax,1)
  40418d:	00 00 00 00 
  404191:	66 66 2e 0f 1f 84 00 	data16 nopw %cs:0x0(%rax,%rax,1)
  404198:	00 00 00 00 
  40419c:	66 66 2e 0f 1f 84 00 	data16 nopw %cs:0x0(%rax,%rax,1)
  4041a3:	00 00 00 00 
  4041a7:	66 66 2e 0f 1f 84 00 	data16 nopw %cs:0x0(%rax,%rax,1)
  4041ae:	00 00 00 00 
  4041b2:	66 66 2e 0f 1f 84 00 	data16 nopw %cs:0x0(%rax,%rax,1)
  4041b9:	00 00 00 00 
  4041bd:	66 66 2e 0f 1f 84 00 	data16 nopw %cs:0x0(%rax,%rax,1)
  4041c4:	00 00 00 00 
  4041c8:	66 66 2e 0f 1f 84 00 	data16 nopw %cs:0x0(%rax,%rax,1)
  4041cf:	00 00 00 00 
  4041d3:	66 66 2e 0f 1f 84 00 	data16 nopw %cs:0x0(%rax,%rax,1)
  4041da:	00 00 00 00 
  4041de:	66 66 2e 0f 1f 84 00 	data16 nopw %cs:0x0(%rax,%rax,1)
  4041e5:	00 00 00 00 
  4041e9:	66 66 2e 0f 1f 84 00 	data16 nopw %cs:0x0(%rax,%rax,1)
  4041f0:	00 00 00 00 
  4041f4:	66 66 2e 0f 1f 84 00 	data16 nopw %cs:0x0(%rax,%rax,1)
  4041fb:	00 00 00 00 
  4041ff:	66 66 2e 0f 1f 84 00 	data16 nopw %cs:0x0(%rax,%rax,1)
  404206:	00 00 00 00 
  40420a:	66 66 2e 0f 1f 84 00 	data16 nopw %cs:0x0(%rax,%rax,1)
  404211:	00 00 00 00 
  404215:	66 66 2e 0f 1f 84 00 	data16 nopw %cs:0x0(%rax,%rax,1)
  40421c:	00 00 00 00 
  404220:	66 66 2e 0f 1f 84 00 	data16 nopw %cs:0x0(%rax,%rax,1)
  404227:	00 00 00 00 
  40422b:	66 66 2e 0f 1f 84 00 	data16 nopw %cs:0x0(%rax,%rax,1)
  404232:	00 00 00 00 
  404236:	66 66 2e 0f 1f 84 00 	data16 nopw %cs:0x0(%rax,%rax,1)
  40423d:	00 00 00 00 
  404241:	66 66 2e 0f 1f 84 00 	data16 nopw %cs:0x0(%rax,%rax,1)
  404248:	00 00 00 00 
  40424c:	66 66 2e 0f 1f 84 00 	data16 nopw %cs:0x0(%rax,%rax,1)
  404253:	00 00 00 00 
  404257:	66 66 2e 0f 1f 84 00 	data16 nopw %cs:0x0(%rax,%rax,1)
  40425e:	00 00 00 00 
  404262:	66 66 2e 0f 1f 84 00 	data16 nopw %cs:0x0(%rax,%rax,1)
  404269:	00 00 00 00 
  40426d:	66 66 2e 0f 1f 84 00 	data16 nopw %cs:0x0(%rax,%rax,1)
  404274:	00 00 00 00 
  404278:	66 66 2e 0f 1f 84 00 	data16 nopw %cs:0x0(%rax,%rax,1)
  40427f:	00 00 00 00 
  404283:	66 66 2e 0f 1f 84 00 	data16 nopw %cs:0x0(%rax,%rax,1)
  40428a:	00 00 00 00 
  40428e:	66 66 2e 0f 1f 84 00 	data16 nopw %cs:0x0(%rax,%rax,1)
  404295:	00 00 00 00 
  404299:	66 66 2e 0f 1f 84 00 	data16 nopw %cs:0x0(%rax,%rax,1)
  4042a0:	00 00 00 00 
  4042a4:	66 66 2e 0f 1f 84 00 	data16 nopw %cs:0x0(%rax,%rax,1)
  4042ab:	00 00 00 00 
  4042af:	66 66 2e 0f 1f 84 00 	data16 nopw %cs:0x0(%rax,%rax,1)
  4042b6:	00 00 00 00 
  4042ba:	66 66 2e 0f 1f 84 00 	data16 nopw %cs:0x0(%rax,%rax,1)
  4042c1:	00 00 00 00 
  4042c5:	66 66 2e 0f 1f 84 00 	data16 nopw %cs:0x0(%rax,%rax,1)
  4042cc:	00 00 00 00 
  4042d0:	66 66 2e 0f 1f 84 00 	data16 nopw %cs:0x0(%rax,%rax,1)
  4042d7:	00 00 00 00 
  4042db:	66 66 2e 0f 1f 84 00 	data16 nopw %cs:0x0(%rax,%rax,1)
  4042e2:	00 00 00 00 
  4042e6:	66 66 2e 0f 1f 84 00 	data16 nopw %cs:0x0(%rax,%rax,1)
  4042ed:	00 00 00 00 
  4042f1:	66 66 2e 0f 1f 84 00 	data16 nopw %cs:0x0(%rax,%rax,1)
  4042f8:	00 00 00 00 
  4042fc:	66 66 2e 0f 1f 84 00 	data16 nopw %cs:0x0(%rax,%rax,1)
  404303:	00 00 00 00 
  404307:	66 66 2e 0f 1f 84 00 	data16 nopw %cs:0x0(%rax,%rax,1)
  40430e:	00 00 00 00 
  404312:	66 66 2e 0f 1f 84 00 	data16 nopw %cs:0x0(%rax,%rax,1)
  404319:	00 00 00 00 
  40431d:	66 66 2e 0f 1f 84 00 	data16 nopw %cs:0x0(%rax,%rax,1)
  404324:	00 00 00 00 
  404328:	66 66 2e 0f 1f 84 00 	data16 nopw %cs:0x0(%rax,%rax,1)
  40432f:	00 00 00 00 
  404333:	66 66 2e 0f 1f 84 00 	data16 nopw %cs:0x0(%rax,%rax,1)
  40433a:	00 00 00 00 
  40433e:	66 66 2e 0f 1f 84 00 	data16 nopw %cs:0x0(%rax,%rax,1)
  404345:	00 00 00 00 
  404349:	66 66 2e 0f 1f 84 00 	data16 nopw %cs:0x0(%rax,%rax,1)
  404350:	00 00 00 00 
  404354:	66 66 2e 0f 1f 84 00 	data16 nopw %cs:0x0(%rax,%rax,1)
  40435b:	00 00 00 00 
  40435f:	66 66 2e 0f 1f 84 00 	data16 nopw %cs:0x0(%rax,%rax,1)
  404366:	00 00 00 00 
  40436a:	66 66 2e 0f 1f 84 00 	data16 nopw %cs:0x0(%rax,%rax,1)
  404371:	00 00 00 00 
  404375:	66 66 2e 0f 1f 84 00 	data16 nopw %cs:0x0(%rax,%rax,1)
  40437c:	00 00 00 00 
  404380:	66 66 2e 0f 1f 84 00 	data16 nopw %cs:0x0(%rax,%rax,1)
  404387:	00 00 00 00 
  40438b:	66 66 2e 0f 1f 84 00 	data16 nopw %cs:0x0(%rax,%rax,1)
  404392:	00 00 00 00 
  404396:	66 66 2e 0f 1f 84 00 	data16 nopw %cs:0x0(%rax,%rax,1)
  40439d:	00 00 00 00 
  4043a1:	66 66 2e 0f 1f 84 00 	data16 nopw %cs:0x0(%rax,%rax,1)
  4043a8:	00 00 00 00 
  4043ac:	66 66 2e 0f 1f 84 00 	data16 nopw %cs:0x0(%rax,%rax,1)
  4043b3:	00 00 00 00 
  4043b7:	66 66 2e 0f 1f 84 00 	data16 nopw %cs:0x0(%rax,%rax,1)
  4043be:	00 00 00 00 
  4043c2:	66 66 2e 0f 1f 84 00 	data16 nopw %cs:0x0(%rax,%rax,1)
  4043c9:	00 00 00 00 
  4043cd:	66 66 2e 0f 1f 84 00 	data16 nopw %cs:0x0(%rax,%rax,1)
  4043d4:	00 00 00 00 
  4043d8:	66 66 2e 0f 1f 84 00 	data16 nopw %cs:0x0(%rax,%rax,1)
  4043df:	00 00 00 00 
  4043e3:	66 66 2e 0f 1f 84 00 	data16 nopw %cs:0x0(%rax,%rax,1)
  4043ea:	00 00 00 00 
  4043ee:	66 66 2e 0f 1f 84 00 	data16 nopw %cs:0x0(%rax,%rax,1)
  4043f5:	00 00 00 00 
  4043f9:	66 66 2e 0f 1f 84 00 	data16 nopw %cs:0x0(%rax,%rax,1)
  404400:	00 00 00 00 
  404404:	66 66 2e 0f 1f 84 00 	data16 nopw %cs:0x0(%rax,%rax,1)
  40440b:	00 00 00 00 
  40440f:	66 66 2e 0f 1f 84 00 	data16 nopw %cs:0x0(%rax,%rax,1)
  404416:	00 00 00 00 
  40441a:	66 66 2e 0f 1f 84 00 	data16 nopw %cs:0x0(%rax,%rax,1)
  404421:	00 00 00 00 
  404425:	66 66 2e 0f 1f 84 00 	data16 nopw %cs:0x0(%rax,%rax,1)
  40442c:	00 00 00 00 
  404430:	66 66 2e 0f 1f 84 00 	data16 nopw %cs:0x0(%rax,%rax,1)
  404437:	00 00 00 00 
  40443b:	66 66 2e 0f 1f 84 00 	data16 nopw %cs:0x0(%rax,%rax,1)
  404442:	00 00 00 00 
  404446:	66 66 2e 0f 1f 84 00 	data16 nopw %cs:0x0(%rax,%rax,1)
  40444d:	00 00 00 00 
  404451:	66 66 2e 0f 1f 84 00 	data16 nopw %cs:0x0(%rax,%rax,1)
  404458:	00 00 00 00 
  40445c:	66 66 2e 0f 1f 84 00 	data16 nopw %cs:0x0(%rax,%rax,1)
  404463:	00 00 00 00 
  404467:	66 66 2e 0f 1f 84 00 	data16 nopw %cs:0x0(%rax,%rax,1)
  40446e:	00 00 00 00 
  404472:	66 66 2e 0f 1f 84 00 	data16 nopw %cs:0x0(%rax,%rax,1)
  404479:	00 00 00 00 
  40447d:	66 66 2e 0f 1f 84 00 	data16 nopw %cs:0x0(%rax,%rax,1)
  404484:	00 00 00 00 
  404488:	66 66 2e 0f 1f 84 00 	data16 nopw %cs:0x0(%rax,%rax,1)
  40448f:	00 00 00 00 
  404493:	66 66 2e 0f 1f 84 00 	data16 nopw %cs:0x0(%rax,%rax,1)
  40449a:	00 00 00 00 
  40449e:	66 66 2e 0f 1f 84 00 	data16 nopw %cs:0x0(%rax,%rax,1)
  4044a5:	00 00 00 00 
  4044a9:	66 66 2e 0f 1f 84 00 	data16 nopw %cs:0x0(%rax,%rax,1)
  4044b0:	00 00 00 00 
  4044b4:	66 66 2e 0f 1f 84 00 	data16 nopw %cs:0x0(%rax,%rax,1)
  4044bb:	00 00 00 00 
  4044bf:	66 66 2e 0f 1f 84 00 	data16 nopw %cs:0x0(%rax,%rax,1)
  4044c6:	00 00 00 00 
  4044ca:	66 66 2e 0f 1f 84 00 	data16 nopw %cs:0x0(%rax,%rax,1)
  4044d1:	00 00 00 00 
  4044d5:	66 66 2e 0f 1f 84 00 	data16 nopw %cs:0x0(%rax,%rax,1)
  4044dc:	00 00 00 00 
  4044e0:	66 66 2e 0f 1f 84 00 	data16 nopw %cs:0x0(%rax,%rax,1)
  4044e7:	00 00 00 00 
  4044eb:	66 66 2e 0f 1f 84 00 	data16 nopw %cs:0x0(%rax,%rax,1)
  4044f2:	00 00 00 00 
  4044f6:	66 66 2e 0f 1f 84 00 	data16 nopw %cs:0x0(%rax,%rax,1)
  4044fd:	00 00 00 00 
  404501:	66 66 2e 0f 1f 84 00 	data16 nopw %cs:0x0(%rax,%rax,1)
  404508:	00 00 00 00 
  40450c:	66 66 2e 0f 1f 84 00 	data16 nopw %cs:0x0(%rax,%rax,1)
  404513:	00 00 00 00 
  404517:	66 66 2e 0f 1f 84 00 	data16 nopw %cs:0x0(%rax,%rax,1)
  40451e:	00 00 00 00 
  404522:	66 66 2e 0f 1f 84 00 	data16 nopw %cs:0x0(%rax,%rax,1)
  404529:	00 00 00 00 
  40452d:	66 66 2e 0f 1f 84 00 	data16 nopw %cs:0x0(%rax,%rax,1)
  404534:	00 00 00 00 
  404538:	66 66 2e 0f 1f 84 00 	data16 nopw %cs:0x0(%rax,%rax,1)
  40453f:	00 00 00 00 
  404543:	66 66 2e 0f 1f 84 00 	data16 nopw %cs:0x0(%rax,%rax,1)
  40454a:	00 00 00 00 
  40454e:	66 66 2e 0f 1f 84 00 	data16 nopw %cs:0x0(%rax,%rax,1)
  404555:	00 00 00 00 
  404559:	66 66 2e 0f 1f 84 00 	data16 nopw %cs:0x0(%rax,%rax,1)
  404560:	00 00 00 00 
  404564:	66 66 2e 0f 1f 84 00 	data16 nopw %cs:0x0(%rax,%rax,1)
  40456b:	00 00 00 00 
  40456f:	66 66 2e 0f 1f 84 00 	data16 nopw %cs:0x0(%rax,%rax,1)
  404576:	00 00 00 00 
  40457a:	66 66 2e 0f 1f 84 00 	data16 nopw %cs:0x0(%rax,%rax,1)
  404581:	00 00 00 00 
  404585:	66 66 2e 0f 1f 84 00 	data16 nopw %cs:0x0(%rax,%rax,1)
  40458c:	00 00 00 00 
  404590:	66 66 2e 0f 1f 84 00 	data16 nopw %cs:0x0(%rax,%rax,1)
  404597:	00 00 00 00 
  40459b:	66 66 2e 0f 1f 84 00 	data16 nopw %cs:0x0(%rax,%rax,1)
  4045a2:	00 00 00 00 
  4045a6:	66 66 2e 0f 1f 84 00 	data16 nopw %cs:0x0(%rax,%rax,1)
  4045ad:	00 00 00 00 
  4045b1:	66 66 2e 0f 1f 84 00 	data16 nopw %cs:0x0(%rax,%rax,1)
  4045b8:	00 00 00 00 
  4045bc:	66 66 2e 0f 1f 84 00 	data16 nopw %cs:0x0(%rax,%rax,1)
  4045c3:	00 00 00 00 
  4045c7:	66 66 2e 0f 1f 84 00 	data16 nopw %cs:0x0(%rax,%rax,1)
  4045ce:	00 00 00 00 
  4045d2:	66 66 2e 0f 1f 84 00 	data16 nopw %cs:0x0(%rax,%rax,1)
  4045d9:	00 00 00 00 
  4045dd:	66 66 2e 0f 1f 84 00 	data16 nopw %cs:0x0(%rax,%rax,1)
  4045e4:	00 00 00 00 
  4045e8:	66 66 2e 0f 1f 84 00 	data16 nopw %cs:0x0(%rax,%rax,1)
  4045ef:	00 00 00 00 
  4045f3:	66 66 2e 0f 1f 84 00 	data16 nopw %cs:0x0(%rax,%rax,1)
  4045fa:	00 00 00 00 
  4045fe:	66 66 2e 0f 1f 84 00 	data16 nopw %cs:0x0(%rax,%rax,1)
  404605:	00 00 00 00 
  404609:	66 66 2e 0f 1f 84 00 	data16 nopw %cs:0x0(%rax,%rax,1)
  404610:	00 00 00 00 
  404614:	66 66 2e 0f 1f 84 00 	data16 nopw %cs:0x0(%rax,%rax,1)
  40461b:	00 00 00 00 
  40461f:	66 66 2e 0f 1f 84 00 	data16 nopw %cs:0x0(%rax,%rax,1)
  404626:	00 00 00 00 
  40462a:	66 66 2e 0f 1f 84 00 	data16 nopw %cs:0x0(%rax,%rax,1)
  404631:	00 00 00 00 
  404635:	66 66 2e 0f 1f 84 00 	data16 nopw %cs:0x0(%rax,%rax,1)
  40463c:	00 00 00 00 
  404640:	66 66 2e 0f 1f 84 00 	data16 nopw %cs:0x0(%rax,%rax,1)
  404647:	00 00 00 00 
  40464b:	66 66 2e 0f 1f 84 00 	data16 nopw %cs:0x0(%rax,%rax,1)
  404652:	00 00 00 00 
  404656:	66 66 2e 0f 1f 84 00 	data16 nopw %cs:0x0(%rax,%rax,1)
  40465d:	00 00 00 00 
  404661:	66 66 2e 0f 1f 84 00 	data16 nopw %cs:0x0(%rax,%rax,1)
  404668:	00 00 00 00 
  40466c:	66 66 2e 0f 1f 84 00 	data16 nopw %cs:0x0(%rax,%rax,1)
  404673:	00 00 00 00 
  404677:	66 66 2e 0f 1f 84 00 	data16 nopw %cs:0x0(%rax,%rax,1)
  40467e:	00 00 00 00 
  404682:	66 66 2e 0f 1f 84 00 	data16 nopw %cs:0x0(%rax,%rax,1)
  404689:	00 00 00 00 
  40468d:	66 66 2e 0f 1f 84 00 	data16 nopw %cs:0x0(%rax,%rax,1)
  404694:	00 00 00 00 
  404698:	66 66 2e 0f 1f 84 00 	data16 nopw %cs:0x0(%rax,%rax,1)
  40469f:	00 00 00 00 
  4046a3:	66 66 2e 0f 1f 84 00 	data16 nopw %cs:0x0(%rax,%rax,1)
  4046aa:	00 00 00 00 
  4046ae:	66 66 2e 0f 1f 84 00 	data16 nopw %cs:0x0(%rax,%rax,1)
  4046b5:	00 00 00 00 
  4046b9:	66 66 2e 0f 1f 84 00 	data16 nopw %cs:0x0(%rax,%rax,1)
  4046c0:	00 00 00 00 
  4046c4:	66 66 2e 0f 1f 84 00 	data16 nopw %cs:0x0(%rax,%rax,1)
  4046cb:	00 00 00 00 
  4046cf:	66 66 2e 0f 1f 84 00 	data16 nopw %cs:0x0(%rax,%rax,1)
  4046d6:	00 00 00 00 
  4046da:	66 66 2e 0f 1f 84 00 	data16 nopw %cs:0x0(%rax,%rax,1)
  4046e1:	00 00 00 00 
  4046e5:	66 66 2e 0f 1f 84 00 	data16 nopw %cs:0x0(%rax,%rax,1)
  4046ec:	00 00 00 00 
  4046f0:	66 66 2e 0f 1f 84 00 	data16 nopw %cs:0x0(%rax,%rax,1)
  4046f7:	00 00 00 00 
  4046fb:	66 66 2e 0f 1f 84 00 	data16 nopw %cs:0x0(%rax,%rax,1)
  404702:	00 00 00 00 
  404706:	66 66 2e 0f 1f 84 00 	data16 nopw %cs:0x0(%rax,%rax,1)
  40470d:	00 00 00 00 
  404711:	66 66 2e 0f 1f 84 00 	data16 nopw %cs:0x0(%rax,%rax,1)
  404718:	00 00 00 00 
  40471c:	66 66 2e 0f 1f 84 00 	data16 nopw %cs:0x0(%rax,%rax,1)
  404723:	00 00 00 00 
  404727:	66 66 2e 0f 1f 84 00 	data16 nopw %cs:0x0(%rax,%rax,1)
  40472e:	00 00 00 00 
  404732:	66 66 2e 0f 1f 84 00 	data16 nopw %cs:0x0(%rax,%rax,1)
  404739:	00 00 00 00 
  40473d:	66 66 2e 0f 1f 84 00 	data16 nopw %cs:0x0(%rax,%rax,1)
  404744:	00 00 00 00 
  404748:	66 66 2e 0f 1f 84 00 	data16 nopw %cs:0x0(%rax,%rax,1)
  40474f:	00 00 00 00 
  404753:	66 66 2e 0f 1f 84 00 	data16 nopw %cs:0x0(%rax,%rax,1)
  40475a:	00 00 00 00 
  40475e:	66 66 2e 0f 1f 84 00 	data16 nopw %cs:0x0(%rax,%rax,1)
  404765:	00 00 00 00 
  404769:	66 66 2e 0f 1f 84 00 	data16 nopw %cs:0x0(%rax,%rax,1)
  404770:	00 00 00 00 
  404774:	66 66 2e 0f 1f 84 00 	data16 nopw %cs:0x0(%rax,%rax,1)
  40477b:	00 00 00 00 
  40477f:	66 66 2e 0f 1f 84 00 	data16 nopw %cs:0x0(%rax,%rax,1)
  404786:	00 00 00 00 
  40478a:	66 66 2e 0f 1f 84 00 	data16 nopw %cs:0x0(%rax,%rax,1)
  404791:	00 00 00 00 
  404795:	66 66 2e 0f 1f 84 00 	data16 nopw %cs:0x0(%rax,%rax,1)
  40479c:	00 00 00 00 
  4047a0:	66 66 2e 0f 1f 84 00 	data16 nopw %cs:0x0(%rax,%rax,1)
  4047a7:	00 00 00 00 
  4047ab:	66 66 2e 0f 1f 84 00 	data16 nopw %cs:0x0(%rax,%rax,1)
  4047b2:	00 00 00 00 
  4047b6:	66 66 2e 0f 1f 84 00 	data16 nopw %cs:0x0(%rax,%rax,1)
  4047bd:	00 00 00 00 
  4047c1:	66 66 2e 0f 1f 84 00 	data16 nopw %cs:0x0(%rax,%rax,1)
  4047c8:	00 00 00 00 
  4047cc:	66 66 2e 0f 1f 84 00 	data16 nopw %cs:0x0(%rax,%rax,1)
  4047d3:	00 00 00 00 
  4047d7:	66 66 2e 0f 1f 84 00 	data16 nopw %cs:0x0(%rax,%rax,1)
  4047de:	00 00 00 00 
  4047e2:	66 66 2e 0f 1f 84 00 	data16 nopw %cs:0x0(%rax,%rax,1)
  4047e9:	00 00 00 00 
  4047ed:	66 66 2e 0f 1f 84 00 	data16 nopw %cs:0x0(%rax,%rax,1)
  4047f4:	00 00 00 00 
  4047f8:	66 66 2e 0f 1f 84 00 	data16 nopw %cs:0x0(%rax,%rax,1)
  4047ff:	00 00 00 00 
  404803:	66 66 2e 0f 1f 84 00 	data16 nopw %cs:0x0(%rax,%rax,1)
  40480a:	00 00 00 00 
  40480e:	66 66 2e 0f 1f 84 00 	data16 nopw %cs:0x0(%rax,%rax,1)
  404815:	00 00 00 00 
  404819:	66 66 2e 0f 1f 84 00 	data16 nopw %cs:0x0(%rax,%rax,1)
  404820:	00 00 00 00 
  404824:	66 66 2e 0f 1f 84 00 	data16 nopw %cs:0x0(%rax,%rax,1)
  40482b:	00 00 00 00 
  40482f:	66 66 2e 0f 1f 84 00 	data16 nopw %cs:0x0(%rax,%rax,1)
  404836:	00 00 00 00 
  40483a:	66 66 2e 0f 1f 84 00 	data16 nopw %cs:0x0(%rax,%rax,1)
  404841:	00 00 00 00 
  404845:	66 66 2e 0f 1f 84 00 	data16 nopw %cs:0x0(%rax,%rax,1)
  40484c:	00 00 00 00 
  404850:	66 66 2e 0f 1f 84 00 	data16 nopw %cs:0x0(%rax,%rax,1)
  404857:	00 00 00 00 
  40485b:	66 66 2e 0f 1f 84 00 	data16 nopw %cs:0x0(%rax,%rax,1)
  404862:	00 00 00 00 
  404866:	66 66 2e 0f 1f 84 00 	data16 nopw %cs:0x0(%rax,%rax,1)
  40486d:	00 00 00 00 
  404871:	66 66 2e 0f 1f 84 00 	data16 nopw %cs:0x0(%rax,%rax,1)
  404878:	00 00 00 00 
  40487c:	66 66 2e 0f 1f 84 00 	data16 nopw %cs:0x0(%rax,%rax,1)
  404883:	00 00 00 00 
  404887:	66 66 2e 0f 1f 84 00 	data16 nopw %cs:0x0(%rax,%rax,1)
  40488e:	00 00 00 00 
  404892:	66 66 2e 0f 1f 84 00 	data16 nopw %cs:0x0(%rax,%rax,1)
  404899:	00 00 00 00 
  40489d:	66 66 2e 0f 1f 84 00 	data16 nopw %cs:0x0(%rax,%rax,1)
  4048a4:	00 00 00 00 
  4048a8:	66 66 2e 0f 1f 84 00 	data16 nopw %cs:0x0(%rax,%rax,1)
  4048af:	00 00 00 00 
  4048b3:	66 66 2e 0f 1f 84 00 	data16 nopw %cs:0x0(%rax,%rax,1)
  4048ba:	00 00 00 00 
  4048be:	66 66 2e 0f 1f 84 00 	data16 nopw %cs:0x0(%rax,%rax,1)
  4048c5:	00 00 00 00 
  4048c9:	66 66 2e 0f 1f 84 00 	data16 nopw %cs:0x0(%rax,%rax,1)
  4048d0:	00 00 00 00 
  4048d4:	66 66 2e 0f 1f 84 00 	data16 nopw %cs:0x0(%rax,%rax,1)
  4048db:	00 00 00 00 
  4048df:	66 66 2e 0f 1f 84 00 	data16 nopw %cs:0x0(%rax,%rax,1)
  4048e6:	00 00 00 00 
  4048ea:	66 66 2e 0f 1f 84 00 	data16 nopw %cs:0x0(%rax,%rax,1)
  4048f1:	00 00 00 00 
  4048f5:	66 66 2e 0f 1f 84 00 	data16 nopw %cs:0x0(%rax,%rax,1)
  4048fc:	00 00 00 00 
  404900:	66 66 2e 0f 1f 84 00 	data16 nopw %cs:0x0(%rax,%rax,1)
  404907:	00 00 00 00 
  40490b:	66 66 2e 0f 1f 84 00 	data16 nopw %cs:0x0(%rax,%rax,1)
  404912:	00 00 00 00 
  404916:	66 66 2e 0f 1f 84 00 	data16 nopw %cs:0x0(%rax,%rax,1)
  40491d:	00 00 00 00 
  404921:	66 66 2e 0f 1f 84 00 	data16 nopw %cs:0x0(%rax,%rax,1)
  404928:	00 00 00 00 
  40492c:	66 66 2e 0f 1f 84 00 	data16 nopw %cs:0x0(%rax,%rax,1)
  404933:	00 00 00 00 
  404937:	66 66 2e 0f 1f 84 00 	data16 nopw %cs:0x0(%rax,%rax,1)
  40493e:	00 00 00 00 
  404942:	66 66 2e 0f 1f 84 00 	data16 nopw %cs:0x0(%rax,%rax,1)
  404949:	00 00 00 00 
  40494d:	66 66 2e 0f 1f 84 00 	data16 nopw %cs:0x0(%rax,%rax,1)
  404954:	00 00 00 00 
  404958:	66 66 2e 0f 1f 84 00 	data16 nopw %cs:0x0(%rax,%rax,1)
  40495f:	00 00 00 00 
  404963:	66 66 2e 0f 1f 84 00 	data16 nopw %cs:0x0(%rax,%rax,1)
  40496a:	00 00 00 00 
  40496e:	66 66 2e 0f 1f 84 00 	data16 nopw %cs:0x0(%rax,%rax,1)
  404975:	00 00 00 00 
  404979:	66 66 2e 0f 1f 84 00 	data16 nopw %cs:0x0(%rax,%rax,1)
  404980:	00 00 00 00 
  404984:	66 66 2e 0f 1f 84 00 	data16 nopw %cs:0x0(%rax,%rax,1)
  40498b:	00 00 00 00 
  40498f:	66 66 2e 0f 1f 84 00 	data16 nopw %cs:0x0(%rax,%rax,1)
  404996:	00 00 00 00 
  40499a:	66 66 2e 0f 1f 84 00 	data16 nopw %cs:0x0(%rax,%rax,1)
  4049a1:	00 00 00 00 
  4049a5:	66 66 2e 0f 1f 84 00 	data16 nopw %cs:0x0(%rax,%rax,1)
  4049ac:	00 00 00 00 
  4049b0:	66 66 2e 0f 1f 84 00 	data16 nopw %cs:0x0(%rax,%rax,1)
  4049b7:	00 00 00 00 
  4049bb:	66 66 2e 0f 1f 84 00 	data16 nopw %cs:0x0(%rax,%rax,1)
  4049c2:	00 00 00 00 
  4049c6:	66 66 2e 0f 1f 84 00 	data16 nopw %cs:0x0(%rax,%rax,1)
  4049cd:	00 00 00 00 
  4049d1:	66 66 2e 0f 1f 84 00 	data16 nopw %cs:0x0(%rax,%rax,1)
  4049d8:	00 00 00 00 
  4049dc:	66 66 2e 0f 1f 84 00 	data16 nopw %cs:0x0(%rax,%rax,1)
  4049e3:	00 00 00 00 
  4049e7:	66 66 2e 0f 1f 84 00 	data16 nopw %cs:0x0(%rax,%rax,1)
  4049ee:	00 00 00 00 
  4049f2:	66 66 2e 0f 1f 84 00 	data16 nopw %cs:0x0(%rax,%rax,1)
  4049f9:	00 00 00 00 
  4049fd:	66 66 2e 0f 1f 84 00 	data16 nopw %cs:0x0(%rax,%rax,1)
  404a04:	00 00 00 00 
  404a08:	66 66 2e 0f 1f 84 00 	data16 nopw %cs:0x0(%rax,%rax,1)
  404a0f:	00 00 00 00 
  404a13:	66 66 2e 0f 1f 84 00 	data16 nopw %cs:0x0(%rax,%rax,1)
  404a1a:	00 00 00 00 
  404a1e:	66 66 2e 0f 1f 84 00 	data16 nopw %cs:0x0(%rax,%rax,1)
  404a25:	00 00 00 00 
  404a29:	66 66 2e 0f 1f 84 00 	data16 nopw %cs:0x0(%rax,%rax,1)
  404a30:	00 00 00 00 
  404a34:	66 66 2e 0f 1f 84 00 	data16 nopw %cs:0x0(%rax,%rax,1)
  404a3b:	00 00 00 00 
  404a3f:	66 66 2e 0f 1f 84 00 	data16 nopw %cs:0x0(%rax,%rax,1)
  404a46:	00 00 00 00 
  404a4a:	66 66 2e 0f 1f 84 00 	data16 nopw %cs:0x0(%rax,%rax,1)
  404a51:	00 00 00 00 
  404a55:	66 66 2e 0f 1f 84 00 	data16 nopw %cs:0x0(%rax,%rax,1)
  404a5c:	00 00 00 00 
  404a60:	66 66 2e 0f 1f 84 00 	data16 nopw %cs:0x0(%rax,%rax,1)
  404a67:	00 00 00 00 
  404a6b:	66 66 2e 0f 1f 84 00 	data16 nopw %cs:0x0(%rax,%rax,1)
  404a72:	00 00 00 00 
  404a76:	66 66 2e 0f 1f 84 00 	data16 nopw %cs:0x0(%rax,%rax,1)
  404a7d:	00 00 00 00 
  404a81:	66 66 2e 0f 1f 84 00 	data16 nopw %cs:0x0(%rax,%rax,1)
  404a88:	00 00 00 00 
  404a8c:	66 66 2e 0f 1f 84 00 	data16 nopw %cs:0x0(%rax,%rax,1)
  404a93:	00 00 00 00 
  404a97:	66 66 2e 0f 1f 84 00 	data16 nopw %cs:0x0(%rax,%rax,1)
  404a9e:	00 00 00 00 
  404aa2:	66 66 2e 0f 1f 84 00 	data16 nopw %cs:0x0(%rax,%rax,1)
  404aa9:	00 00 00 00 
  404aad:	66 66 2e 0f 1f 84 00 	data16 nopw %cs:0x0(%rax,%rax,1)
  404ab4:	00 00 00 00 
  404ab8:	66 66 2e 0f 1f 84 00 	data16 nopw %cs:0x0(%rax,%rax,1)
  404abf:	00 00 00 00 
  404ac3:	66 66 2e 0f 1f 84 00 	data16 nopw %cs:0x0(%rax,%rax,1)
  404aca:	00 00 00 00 
  404ace:	66 66 2e 0f 1f 84 00 	data16 nopw %cs:0x0(%rax,%rax,1)
  404ad5:	00 00 00 00 
  404ad9:	66 66 2e 0f 1f 84 00 	data16 nopw %cs:0x0(%rax,%rax,1)
  404ae0:	00 00 00 00 
  404ae4:	66 66 2e 0f 1f 84 00 	data16 nopw %cs:0x0(%rax,%rax,1)
  404aeb:	00 00 00 00 
  404aef:	66 66 2e 0f 1f 84 00 	data16 nopw %cs:0x0(%rax,%rax,1)
  404af6:	00 00 00 00 
  404afa:	66 66 2e 0f 1f 84 00 	data16 nopw %cs:0x0(%rax,%rax,1)
  404b01:	00 00 00 00 
  404b05:	66 66 2e 0f 1f 84 00 	data16 nopw %cs:0x0(%rax,%rax,1)
  404b0c:	00 00 00 00 
  404b10:	66 66 2e 0f 1f 84 00 	data16 nopw %cs:0x0(%rax,%rax,1)
  404b17:	00 00 00 00 
  404b1b:	66 66 2e 0f 1f 84 00 	data16 nopw %cs:0x0(%rax,%rax,1)
  404b22:	00 00 00 00 
  404b26:	66 66 2e 0f 1f 84 00 	data16 nopw %cs:0x0(%rax,%rax,1)
  404b2d:	00 00 00 00 
  404b31:	66 66 2e 0f 1f 84 00 	data16 nopw %cs:0x0(%rax,%rax,1)
  404b38:	00 00 00 00 
  404b3c:	66 66 2e 0f 1f 84 00 	data16 nopw %cs:0x0(%rax,%rax,1)
  404b43:	00 00 00 00 
  404b47:	66 66 2e 0f 1f 84 00 	data16 nopw %cs:0x0(%rax,%rax,1)
  404b4e:	00 00 00 00 
  404b52:	66 66 2e 0f 1f 84 00 	data16 nopw %cs:0x0(%rax,%rax,1)
  404b59:	00 00 00 00 
  404b5d:	66 66 2e 0f 1f 84 00 	data16 nopw %cs:0x0(%rax,%rax,1)
  404b64:	00 00 00 00 
  404b68:	66 66 2e 0f 1f 84 00 	data16 nopw %cs:0x0(%rax,%rax,1)
  404b6f:	00 00 00 00 
  404b73:	66 66 2e 0f 1f 84 00 	data16 nopw %cs:0x0(%rax,%rax,1)
  404b7a:	00 00 00 00 
  404b7e:	66 66 2e 0f 1f 84 00 	data16 nopw %cs:0x0(%rax,%rax,1)
  404b85:	00 00 00 00 
  404b89:	66 66 2e 0f 1f 84 00 	data16 nopw %cs:0x0(%rax,%rax,1)
  404b90:	00 00 00 00 
  404b94:	66 66 2e 0f 1f 84 00 	data16 nopw %cs:0x0(%rax,%rax,1)
  404b9b:	00 00 00 00 
  404b9f:	66 66 2e 0f 1f 84 00 	data16 nopw %cs:0x0(%rax,%rax,1)
  404ba6:	00 00 00 00 
  404baa:	66 66 2e 0f 1f 84 00 	data16 nopw %cs:0x0(%rax,%rax,1)
  404bb1:	00 00 00 00 
  404bb5:	66 66 2e 0f 1f 84 00 	data16 nopw %cs:0x0(%rax,%rax,1)
  404bbc:	00 00 00 00 
  404bc0:	66 66 2e 0f 1f 84 00 	data16 nopw %cs:0x0(%rax,%rax,1)
  404bc7:	00 00 00 00 
  404bcb:	66 66 2e 0f 1f 84 00 	data16 nopw %cs:0x0(%rax,%rax,1)
  404bd2:	00 00 00 00 
  404bd6:	66 66 2e 0f 1f 84 00 	data16 nopw %cs:0x0(%rax,%rax,1)
  404bdd:	00 00 00 00 
  404be1:	66 66 2e 0f 1f 84 00 	data16 nopw %cs:0x0(%rax,%rax,1)
  404be8:	00 00 00 00 
  404bec:	66 66 2e 0f 1f 84 00 	data16 nopw %cs:0x0(%rax,%rax,1)
  404bf3:	00 00 00 00 
  404bf7:	66 66 2e 0f 1f 84 00 	data16 nopw %cs:0x0(%rax,%rax,1)
  404bfe:	00 00 00 00 
  404c02:	66 66 2e 0f 1f 84 00 	data16 nopw %cs:0x0(%rax,%rax,1)
  404c09:	00 00 00 00 
  404c0d:	66 66 2e 0f 1f 84 00 	data16 nopw %cs:0x0(%rax,%rax,1)
  404c14:	00 00 00 00 
  404c18:	66 66 2e 0f 1f 84 00 	data16 nopw %cs:0x0(%rax,%rax,1)
  404c1f:	00 00 00 00 
  404c23:	66 66 2e 0f 1f 84 00 	data16 nopw %cs:0x0(%rax,%rax,1)
  404c2a:	00 00 00 00 
  404c2e:	66 66 2e 0f 1f 84 00 	data16 nopw %cs:0x0(%rax,%rax,1)
  404c35:	00 00 00 00 
  404c39:	66 66 2e 0f 1f 84 00 	data16 nopw %cs:0x0(%rax,%rax,1)
  404c40:	00 00 00 00 
  404c44:	66 66 2e 0f 1f 84 00 	data16 nopw %cs:0x0(%rax,%rax,1)
  404c4b:	00 00 00 00 
  404c4f:	66 66 2e 0f 1f 84 00 	data16 nopw %cs:0x0(%rax,%rax,1)
  404c56:	00 00 00 00 
  404c5a:	66 66 2e 0f 1f 84 00 	data16 nopw %cs:0x0(%rax,%rax,1)
  404c61:	00 00 00 00 
  404c65:	66 66 2e 0f 1f 84 00 	data16 nopw %cs:0x0(%rax,%rax,1)
  404c6c:	00 00 00 00 
  404c70:	66 66 2e 0f 1f 84 00 	data16 nopw %cs:0x0(%rax,%rax,1)
  404c77:	00 00 00 00 
  404c7b:	66 66 2e 0f 1f 84 00 	data16 nopw %cs:0x0(%rax,%rax,1)
  404c82:	00 00 00 00 
  404c86:	66 66 2e 0f 1f 84 00 	data16 nopw %cs:0x0(%rax,%rax,1)
  404c8d:	00 00 00 00 
  404c91:	66 66 2e 0f 1f 84 00 	data16 nopw %cs:0x0(%rax,%rax,1)
  404c98:	00 00 00 00 
  404c9c:	66 66 2e 0f 1f 84 00 	data16 nopw %cs:0x0(%rax,%rax,1)
  404ca3:	00 00 00 00 
  404ca7:	66 66 2e 0f 1f 84 00 	data16 nopw %cs:0x0(%rax,%rax,1)
  404cae:	00 00 00 00 
  404cb2:	66 66 2e 0f 1f 84 00 	data16 nopw %cs:0x0(%rax,%rax,1)
  404cb9:	00 00 00 00 
  404cbd:	66 66 2e 0f 1f 84 00 	data16 nopw %cs:0x0(%rax,%rax,1)
  404cc4:	00 00 00 00 
  404cc8:	66 66 2e 0f 1f 84 00 	data16 nopw %cs:0x0(%rax,%rax,1)
  404ccf:	00 00 00 00 
  404cd3:	66 66 2e 0f 1f 84 00 	data16 nopw %cs:0x0(%rax,%rax,1)
  404cda:	00 00 00 00 
  404cde:	66 66 2e 0f 1f 84 00 	data16 nopw %cs:0x0(%rax,%rax,1)
  404ce5:	00 00 00 00 
  404ce9:	66 66 2e 0f 1f 84 00 	data16 nopw %cs:0x0(%rax,%rax,1)
  404cf0:	00 00 00 00 
  404cf4:	66 66 2e 0f 1f 84 00 	data16 nopw %cs:0x0(%rax,%rax,1)
  404cfb:	00 00 00 00 
  404cff:	66 66 2e 0f 1f 84 00 	data16 nopw %cs:0x0(%rax,%rax,1)
  404d06:	00 00 00 00 
  404d0a:	66 66 2e 0f 1f 84 00 	data16 nopw %cs:0x0(%rax,%rax,1)
  404d11:	00 00 00 00 
  404d15:	66 66 2e 0f 1f 84 00 	data16 nopw %cs:0x0(%rax,%rax,1)
  404d1c:	00 00 00 00 
  404d20:	66 66 2e 0f 1f 84 00 	data16 nopw %cs:0x0(%rax,%rax,1)
  404d27:	00 00 00 00 
  404d2b:	66 66 2e 0f 1f 84 00 	data16 nopw %cs:0x0(%rax,%rax,1)
  404d32:	00 00 00 00 
  404d36:	66 66 2e 0f 1f 84 00 	data16 nopw %cs:0x0(%rax,%rax,1)
  404d3d:	00 00 00 00 
  404d41:	66 66 2e 0f 1f 84 00 	data16 nopw %cs:0x0(%rax,%rax,1)
  404d48:	00 00 00 00 
  404d4c:	66 66 2e 0f 1f 84 00 	data16 nopw %cs:0x0(%rax,%rax,1)
  404d53:	00 00 00 00 
  404d57:	66 66 2e 0f 1f 84 00 	data16 nopw %cs:0x0(%rax,%rax,1)
  404d5e:	00 00 00 00 
  404d62:	66 66 2e 0f 1f 84 00 	data16 nopw %cs:0x0(%rax,%rax,1)
  404d69:	00 00 00 00 
  404d6d:	66 66 2e 0f 1f 84 00 	data16 nopw %cs:0x0(%rax,%rax,1)
  404d74:	00 00 00 00 
  404d78:	66 66 2e 0f 1f 84 00 	data16 nopw %cs:0x0(%rax,%rax,1)
  404d7f:	00 00 00 00 
  404d83:	66 66 2e 0f 1f 84 00 	data16 nopw %cs:0x0(%rax,%rax,1)
  404d8a:	00 00 00 00 
  404d8e:	66 66 2e 0f 1f 84 00 	data16 nopw %cs:0x0(%rax,%rax,1)
  404d95:	00 00 00 00 
  404d99:	66 66 2e 0f 1f 84 00 	data16 nopw %cs:0x0(%rax,%rax,1)
  404da0:	00 00 00 00 
  404da4:	66 66 2e 0f 1f 84 00 	data16 nopw %cs:0x0(%rax,%rax,1)
  404dab:	00 00 00 00 
  404daf:	66 66 2e 0f 1f 84 00 	data16 nopw %cs:0x0(%rax,%rax,1)
  404db6:	00 00 00 00 
  404dba:	66 66 2e 0f 1f 84 00 	data16 nopw %cs:0x0(%rax,%rax,1)
  404dc1:	00 00 00 00 
  404dc5:	66 66 2e 0f 1f 84 00 	data16 nopw %cs:0x0(%rax,%rax,1)
  404dcc:	00 00 00 00 
  404dd0:	66 66 2e 0f 1f 84 00 	data16 nopw %cs:0x0(%rax,%rax,1)
  404dd7:	00 00 00 00 
  404ddb:	66 66 2e 0f 1f 84 00 	data16 nopw %cs:0x0(%rax,%rax,1)
  404de2:	00 00 00 00 
  404de6:	66 66 2e 0f 1f 84 00 	data16 nopw %cs:0x0(%rax,%rax,1)
  404ded:	00 00 00 00 
  404df1:	66 66 2e 0f 1f 84 00 	data16 nopw %cs:0x0(%rax,%rax,1)
  404df8:	00 00 00 00 
  404dfc:	66 66 2e 0f 1f 84 00 	data16 nopw %cs:0x0(%rax,%rax,1)
  404e03:	00 00 00 00 
  404e07:	66 66 2e 0f 1f 84 00 	data16 nopw %cs:0x0(%rax,%rax,1)
  404e0e:	00 00 00 00 
  404e12:	66 66 2e 0f 1f 84 00 	data16 nopw %cs:0x0(%rax,%rax,1)
  404e19:	00 00 00 00 
  404e1d:	66 66 2e 0f 1f 84 00 	data16 nopw %cs:0x0(%rax,%rax,1)
  404e24:	00 00 00 00 
  404e28:	66 66 2e 0f 1f 84 00 	data16 nopw %cs:0x0(%rax,%rax,1)
  404e2f:	00 00 00 00 
  404e33:	66 66 2e 0f 1f 84 00 	data16 nopw %cs:0x0(%rax,%rax,1)
  404e3a:	00 00 00 00 
  404e3e:	66 66 2e 0f 1f 84 00 	data16 nopw %cs:0x0(%rax,%rax,1)
  404e45:	00 00 00 00 
  404e49:	66 66 2e 0f 1f 84 00 	data16 nopw %cs:0x0(%rax,%rax,1)
  404e50:	00 00 00 00 
  404e54:	66 66 2e 0f 1f 84 00 	data16 nopw %cs:0x0(%rax,%rax,1)
  404e5b:	00 00 00 00 
  404e5f:	66 66 2e 0f 1f 84 00 	data16 nopw %cs:0x0(%rax,%rax,1)
  404e66:	00 00 00 00 
  404e6a:	66 66 2e 0f 1f 84 00 	data16 nopw %cs:0x0(%rax,%rax,1)
  404e71:	00 00 00 00 
  404e75:	66 66 2e 0f 1f 84 00 	data16 nopw %cs:0x0(%rax,%rax,1)
  404e7c:	00 00 00 00 
  404e80:	66 66 2e 0f 1f 84 00 	data16 nopw %cs:0x0(%rax,%rax,1)
  404e87:	00 00 00 00 
  404e8b:	66 66 2e 0f 1f 84 00 	data16 nopw %cs:0x0(%rax,%rax,1)
  404e92:	00 00 00 00 
  404e96:	66 66 2e 0f 1f 84 00 	data16 nopw %cs:0x0(%rax,%rax,1)
  404e9d:	00 00 00 00 
  404ea1:	66 66 2e 0f 1f 84 00 	data16 nopw %cs:0x0(%rax,%rax,1)
  404ea8:	00 00 00 00 
  404eac:	66 66 2e 0f 1f 84 00 	data16 nopw %cs:0x0(%rax,%rax,1)
  404eb3:	00 00 00 00 
  404eb7:	66 66 2e 0f 1f 84 00 	data16 nopw %cs:0x0(%rax,%rax,1)
  404ebe:	00 00 00 00 
  404ec2:	66 66 2e 0f 1f 84 00 	data16 nopw %cs:0x0(%rax,%rax,1)
  404ec9:	00 00 00 00 
  404ecd:	66 66 2e 0f 1f 84 00 	data16 nopw %cs:0x0(%rax,%rax,1)
  404ed4:	00 00 00 00 
  404ed8:	66 66 2e 0f 1f 84 00 	data16 nopw %cs:0x0(%rax,%rax,1)
  404edf:	00 00 00 00 
  404ee3:	66 66 2e 0f 1f 84 00 	data16 nopw %cs:0x0(%rax,%rax,1)
  404eea:	00 00 00 00 
  404eee:	66 66 2e 0f 1f 84 00 	data16 nopw %cs:0x0(%rax,%rax,1)
  404ef5:	00 00 00 00 
  404ef9:	66 66 2e 0f 1f 84 00 	data16 nopw %cs:0x0(%rax,%rax,1)
  404f00:	00 00 00 00 
  404f04:	66 66 2e 0f 1f 84 00 	data16 nopw %cs:0x0(%rax,%rax,1)
  404f0b:	00 00 00 00 
  404f0f:	66 66 2e 0f 1f 84 00 	data16 nopw %cs:0x0(%rax,%rax,1)
  404f16:	00 00 00 00 
  404f1a:	66 66 2e 0f 1f 84 00 	data16 nopw %cs:0x0(%rax,%rax,1)
  404f21:	00 00 00 00 
  404f25:	66 66 2e 0f 1f 84 00 	data16 nopw %cs:0x0(%rax,%rax,1)
  404f2c:	00 00 00 00 
  404f30:	66 66 2e 0f 1f 84 00 	data16 nopw %cs:0x0(%rax,%rax,1)
  404f37:	00 00 00 00 
  404f3b:	66 66 2e 0f 1f 84 00 	data16 nopw %cs:0x0(%rax,%rax,1)
  404f42:	00 00 00 00 
  404f46:	66 66 2e 0f 1f 84 00 	data16 nopw %cs:0x0(%rax,%rax,1)
  404f4d:	00 00 00 00 
  404f51:	66 66 2e 0f 1f 84 00 	data16 nopw %cs:0x0(%rax,%rax,1)
  404f58:	00 00 00 00 
  404f5c:	66 66 2e 0f 1f 84 00 	data16 nopw %cs:0x0(%rax,%rax,1)
  404f63:	00 00 00 00 
  404f67:	66 66 2e 0f 1f 84 00 	data16 nopw %cs:0x0(%rax,%rax,1)
  404f6e:	00 00 00 00 
  404f72:	66 66 2e 0f 1f 84 00 	data16 nopw %cs:0x0(%rax,%rax,1)
  404f79:	00 00 00 00 
  404f7d:	66 66 2e 0f 1f 84 00 	data16 nopw %cs:0x0(%rax,%rax,1)
  404f84:	00 00 00 00 
  404f88:	66 66 2e 0f 1f 84 00 	data16 nopw %cs:0x0(%rax,%rax,1)
  404f8f:	00 00 00 00 
  404f93:	66 66 2e 0f 1f 84 00 	data16 nopw %cs:0x0(%rax,%rax,1)
  404f9a:	00 00 00 00 
  404f9e:	66 66 2e 0f 1f 84 00 	data16 nopw %cs:0x0(%rax,%rax,1)
  404fa5:	00 00 00 00 
  404fa9:	66 66 2e 0f 1f 84 00 	data16 nopw %cs:0x0(%rax,%rax,1)
  404fb0:	00 00 00 00 
  404fb4:	66 66 2e 0f 1f 84 00 	data16 nopw %cs:0x0(%rax,%rax,1)
  404fbb:	00 00 00 00 
  404fbf:	66 66 2e 0f 1f 84 00 	data16 nopw %cs:0x0(%rax,%rax,1)
  404fc6:	00 00 00 00 
  404fca:	66 66 2e 0f 1f 84 00 	data16 nopw %cs:0x0(%rax,%rax,1)
  404fd1:	00 00 00 00 
  404fd5:	66 66 2e 0f 1f 84 00 	data16 nopw %cs:0x0(%rax,%rax,1)
  404fdc:	00 00 00 00 
  404fe0:	66 66 2e 0f 1f 84 00 	data16 nopw %cs:0x0(%rax,%rax,1)
  404fe7:	00 00 00 00 
  404feb:	66 66 2e 0f 1f 84 00 	data16 nopw %cs:0x0(%rax,%rax,1)
  404ff2:	00 00 00 00 
  404ff6:	66 2e 0f 1f 84 00 00 	nopw   %cs:0x0(%rax,%rax,1)
  404ffd:	00 00 00 

0000000000405000 <touch3>:
  405000:	53                   	push   %rbx
  405001:	48 89 fb             	mov    %rdi,%rbx
  405004:	c7 05 1a 5a 00 00 03 	movl   $0x3,0x5a1a(%rip)        # 40aa28 <vlevel>
  40500b:	00 00 00 
  40500e:	48 89 fe             	mov    %rdi,%rsi
  405011:	8b 3d 19 5a 00 00    	mov    0x5a19(%rip),%edi        # 40aa30 <cookie>
  405017:	e8 3a f0 ff ff       	callq  404056 <hexmatch>
  40501c:	85 c0                	test   %eax,%eax
  40501e:	74 26                	je     405046 <touch3+0x46>
  405020:	48 89 de             	mov    %rbx,%rsi
  405023:	bf 40 84 40 00       	mov    $0x408440,%edi
  405028:	b8 00 00 00 00       	mov    $0x0,%eax
  40502d:	e8 9e c0 ff ff       	callq  4010d0 <printf@plt>
  405032:	bf 03 00 00 00       	mov    $0x3,%edi
  405037:	e8 d8 02 00 00       	callq  405314 <validate>
  40503c:	bf 00 00 00 00       	mov    $0x0,%edi
  405041:	e8 ea c1 ff ff       	callq  401230 <exit@plt>
  405046:	48 89 de             	mov    %rbx,%rsi
  405049:	bf 68 84 40 00       	mov    $0x408468,%edi
  40504e:	b8 00 00 00 00       	mov    $0x0,%eax
  405053:	e8 78 c0 ff ff       	callq  4010d0 <printf@plt>
  405058:	bf 03 00 00 00       	mov    $0x3,%edi
  40505d:	e8 64 03 00 00       	callq  4053c6 <fail>
  405062:	eb d8                	jmp    40503c <touch3+0x3c>

0000000000405064 <test>:
  405064:	48 83 ec 08          	sub    $0x8,%rsp
  405068:	b8 00 00 00 00       	mov    $0x0,%eax
  40506d:	e8 2e dc ff ff       	callq  402ca0 <getbuf>
  405072:	89 c6                	mov    %eax,%esi
  405074:	bf 90 84 40 00       	mov    $0x408490,%edi
  405079:	b8 00 00 00 00       	mov    $0x0,%eax
  40507e:	e8 4d c0 ff ff       	callq  4010d0 <printf@plt>
  405083:	48 83 c4 08          	add    $0x8,%rsp
  405087:	c3                   	retq   

0000000000405088 <save_char>:
  405088:	8b 05 b6 65 00 00    	mov    0x65b6(%rip),%eax        # 40b644 <gets_cnt>
  40508e:	3d ff 03 00 00       	cmp    $0x3ff,%eax
  405093:	7f 49                	jg     4050de <save_char+0x56>
  405095:	89 f9                	mov    %edi,%ecx
  405097:	c0 e9 04             	shr    $0x4,%cl
  40509a:	8d 14 40             	lea    (%rax,%rax,2),%edx
  40509d:	83 e1 0f             	and    $0xf,%ecx
  4050a0:	0f b6 b1 b0 87 40 00 	movzbl 0x4087b0(%rcx),%esi
  4050a7:	48 63 ca             	movslq %edx,%rcx
  4050aa:	40 88 b1 40 aa 40 00 	mov    %sil,0x40aa40(%rcx)
  4050b1:	8d 4a 01             	lea    0x1(%rdx),%ecx
  4050b4:	83 e7 0f             	and    $0xf,%edi
  4050b7:	0f b6 b7 b0 87 40 00 	movzbl 0x4087b0(%rdi),%esi
  4050be:	48 63 c9             	movslq %ecx,%rcx
  4050c1:	40 88 b1 40 aa 40 00 	mov    %sil,0x40aa40(%rcx)
  4050c8:	83 c2 02             	add    $0x2,%edx
  4050cb:	48 63 d2             	movslq %edx,%rdx
  4050ce:	c6 82 40 aa 40 00 20 	movb   $0x20,0x40aa40(%rdx)
  4050d5:	83 c0 01             	add    $0x1,%eax
  4050d8:	89 05 66 65 00 00    	mov    %eax,0x6566(%rip)        # 40b644 <gets_cnt>
  4050de:	c3                   	retq   

00000000004050df <save_term>:
  4050df:	8b 05 5f 65 00 00    	mov    0x655f(%rip),%eax        # 40b644 <gets_cnt>
  4050e5:	8d 04 40             	lea    (%rax,%rax,2),%eax
  4050e8:	48 98                	cltq   
  4050ea:	c6 80 40 aa 40 00 00 	movb   $0x0,0x40aa40(%rax)
  4050f1:	c3                   	retq   

00000000004050f2 <check_fail>:
  4050f2:	48 83 ec 08          	sub    $0x8,%rsp
  4050f6:	0f be 35 23 59 00 00 	movsbl 0x5923(%rip),%esi        # 40aa20 <target_prefix>
  4050fd:	b9 40 aa 40 00       	mov    $0x40aa40,%ecx
  405102:	8b 15 1c 59 00 00    	mov    0x591c(%rip),%edx        # 40aa24 <check_level>
  405108:	bf b3 84 40 00       	mov    $0x4084b3,%edi
  40510d:	b8 00 00 00 00       	mov    $0x0,%eax
  405112:	e8 b9 bf ff ff       	callq  4010d0 <printf@plt>
  405117:	bf 01 00 00 00       	mov    $0x1,%edi
  40511c:	e8 0f c1 ff ff       	callq  401230 <exit@plt>

0000000000405121 <Gets>:
  405121:	41 54                	push   %r12
  405123:	55                   	push   %rbp
  405124:	53                   	push   %rbx
  405125:	49 89 fc             	mov    %rdi,%r12
  405128:	c7 05 12 65 00 00 00 	movl   $0x0,0x6512(%rip)        # 40b644 <gets_cnt>
  40512f:	00 00 00 
  405132:	48 89 fb             	mov    %rdi,%rbx
  405135:	eb 11                	jmp    405148 <Gets+0x27>
  405137:	48 8d 6b 01          	lea    0x1(%rbx),%rbp
  40513b:	88 03                	mov    %al,(%rbx)
  40513d:	0f b6 f8             	movzbl %al,%edi
  405140:	e8 43 ff ff ff       	callq  405088 <save_char>
  405145:	48 89 eb             	mov    %rbp,%rbx
  405148:	48 8b 3d c9 58 00 00 	mov    0x58c9(%rip),%rdi        # 40aa18 <infile>
  40514f:	e8 0c c1 ff ff       	callq  401260 <getc@plt>
  405154:	83 f8 ff             	cmp    $0xffffffff,%eax
  405157:	74 05                	je     40515e <Gets+0x3d>
  405159:	83 f8 0a             	cmp    $0xa,%eax
  40515c:	75 d9                	jne    405137 <Gets+0x16>
  40515e:	c6 03 00             	movb   $0x0,(%rbx)
  405161:	b8 00 00 00 00       	mov    $0x0,%eax
  405166:	e8 74 ff ff ff       	callq  4050df <save_term>
  40516b:	4c 89 e0             	mov    %r12,%rax
  40516e:	5b                   	pop    %rbx
  40516f:	5d                   	pop    %rbp
  405170:	41 5c                	pop    %r12
  405172:	c3                   	retq   

0000000000405173 <notify_server>:
  405173:	83 3d ba 58 00 00 00 	cmpl   $0x0,0x58ba(%rip)        # 40aa34 <is_checker>
  40517a:	0f 85 93 01 00 00    	jne    405313 <notify_server+0x1a0>
  405180:	55                   	push   %rbp
  405181:	53                   	push   %rbx
  405182:	48 81 ec 08 40 00 00 	sub    $0x4008,%rsp
  405189:	89 fb                	mov    %edi,%ebx
  40518b:	81 3d af 64 00 00 9c 	cmpl   $0x1f9c,0x64af(%rip)        # 40b644 <gets_cnt>
  405192:	1f 00 00 
  405195:	0f 8f ad 00 00 00    	jg     405248 <notify_server+0xd5>
  40519b:	44 0f be 0d 7d 58 00 	movsbl 0x587d(%rip),%r9d        # 40aa20 <target_prefix>
  4051a2:	00 
  4051a3:	83 3d de 57 00 00 00 	cmpl   $0x0,0x57de(%rip)        # 40a988 <notify>
  4051aa:	0f 84 b1 00 00 00    	je     405261 <notify_server+0xee>
  4051b0:	44 8b 05 75 58 00 00 	mov    0x5875(%rip),%r8d        # 40aa2c <authkey>
  4051b7:	85 db                	test   %ebx,%ebx
  4051b9:	0f 84 ad 00 00 00    	je     40526c <notify_server+0xf9>
  4051bf:	bd c9 84 40 00       	mov    $0x4084c9,%ebp
  4051c4:	68 40 aa 40 00       	pushq  $0x40aa40
  4051c9:	56                   	push   %rsi
  4051ca:	48 89 e9             	mov    %rbp,%rcx
  4051cd:	8b 15 95 4f 00 00    	mov    0x4f95(%rip),%edx        # 40a168 <target_id>
  4051d3:	be d3 84 40 00       	mov    $0x4084d3,%esi
  4051d8:	48 8d bc 24 10 20 00 	lea    0x2010(%rsp),%rdi
  4051df:	00 
  4051e0:	b8 00 00 00 00       	mov    $0x0,%eax
  4051e5:	e8 36 c0 ff ff       	callq  401220 <sprintf@plt>
  4051ea:	48 83 c4 10          	add    $0x10,%rsp
  4051ee:	83 3d 93 57 00 00 00 	cmpl   $0x0,0x5793(%rip)        # 40a988 <notify>
  4051f5:	0f 84 ab 00 00 00    	je     4052a6 <notify_server+0x133>
  4051fb:	85 db                	test   %ebx,%ebx
  4051fd:	0f 84 8f 00 00 00    	je     405292 <notify_server+0x11f>
  405203:	49 89 e1             	mov    %rsp,%r9
  405206:	41 b8 00 00 00 00    	mov    $0x0,%r8d
  40520c:	48 8d 8c 24 00 20 00 	lea    0x2000(%rsp),%rcx
  405213:	00 
  405214:	48 8b 15 55 4f 00 00 	mov    0x4f55(%rip),%rdx        # 40a170 <lab>
  40521b:	48 8b 35 5e 57 00 00 	mov    0x575e(%rip),%rsi        # 40a980 <course>
  405222:	48 8b 3d 37 4f 00 00 	mov    0x4f37(%rip),%rdi        # 40a160 <user_id>
  405229:	e8 9e 0f 00 00       	callq  4061cc <driver_post>
  40522e:	85 c0                	test   %eax,%eax
  405230:	78 44                	js     405276 <notify_server+0x103>
  405232:	bf 18 86 40 00       	mov    $0x408618,%edi
  405237:	e8 54 be ff ff       	callq  401090 <puts@plt>
  40523c:	bf fb 84 40 00       	mov    $0x4084fb,%edi
  405241:	e8 4a be ff ff       	callq  401090 <puts@plt>
  405246:	eb 54                	jmp    40529c <notify_server+0x129>
  405248:	bf e8 85 40 00       	mov    $0x4085e8,%edi
  40524d:	b8 00 00 00 00       	mov    $0x0,%eax
  405252:	e8 79 be ff ff       	callq  4010d0 <printf@plt>
  405257:	bf 01 00 00 00       	mov    $0x1,%edi
  40525c:	e8 cf bf ff ff       	callq  401230 <exit@plt>
  405261:	41 b8 ff ff ff ff    	mov    $0xffffffff,%r8d
  405267:	e9 4b ff ff ff       	jmpq   4051b7 <notify_server+0x44>
  40526c:	bd ce 84 40 00       	mov    $0x4084ce,%ebp
  405271:	e9 4e ff ff ff       	jmpq   4051c4 <notify_server+0x51>
  405276:	48 89 e6             	mov    %rsp,%rsi
  405279:	bf ef 84 40 00       	mov    $0x4084ef,%edi
  40527e:	b8 00 00 00 00       	mov    $0x0,%eax
  405283:	e8 48 be ff ff       	callq  4010d0 <printf@plt>
  405288:	bf 01 00 00 00       	mov    $0x1,%edi
  40528d:	e8 9e bf ff ff       	callq  401230 <exit@plt>
  405292:	bf 05 85 40 00       	mov    $0x408505,%edi
  405297:	e8 f4 bd ff ff       	callq  401090 <puts@plt>
  40529c:	48 81 c4 08 40 00 00 	add    $0x4008,%rsp
  4052a3:	5b                   	pop    %rbx
  4052a4:	5d                   	pop    %rbp
  4052a5:	c3                   	retq   
  4052a6:	48 89 ee             	mov    %rbp,%rsi
  4052a9:	bf 50 86 40 00       	mov    $0x408650,%edi
  4052ae:	b8 00 00 00 00       	mov    $0x0,%eax
  4052b3:	e8 18 be ff ff       	callq  4010d0 <printf@plt>
  4052b8:	48 8b 35 a1 4e 00 00 	mov    0x4ea1(%rip),%rsi        # 40a160 <user_id>
  4052bf:	bf 0c 85 40 00       	mov    $0x40850c,%edi
  4052c4:	b8 00 00 00 00       	mov    $0x0,%eax
  4052c9:	e8 02 be ff ff       	callq  4010d0 <printf@plt>
  4052ce:	48 8b 35 ab 56 00 00 	mov    0x56ab(%rip),%rsi        # 40a980 <course>
  4052d5:	bf 19 85 40 00       	mov    $0x408519,%edi
  4052da:	b8 00 00 00 00       	mov    $0x0,%eax
  4052df:	e8 ec bd ff ff       	callq  4010d0 <printf@plt>
  4052e4:	48 8b 35 85 4e 00 00 	mov    0x4e85(%rip),%rsi        # 40a170 <lab>
  4052eb:	bf 25 85 40 00       	mov    $0x408525,%edi
  4052f0:	b8 00 00 00 00       	mov    $0x0,%eax
  4052f5:	e8 d6 bd ff ff       	callq  4010d0 <printf@plt>
  4052fa:	48 8d b4 24 00 20 00 	lea    0x2000(%rsp),%rsi
  405301:	00 
  405302:	bf 2e 85 40 00       	mov    $0x40852e,%edi
  405307:	b8 00 00 00 00       	mov    $0x0,%eax
  40530c:	e8 bf bd ff ff       	callq  4010d0 <printf@plt>
  405311:	eb 89                	jmp    40529c <notify_server+0x129>
  405313:	c3                   	retq   

0000000000405314 <validate>:
  405314:	53                   	push   %rbx
  405315:	89 fb                	mov    %edi,%ebx
  405317:	83 3d 16 57 00 00 00 	cmpl   $0x0,0x5716(%rip)        # 40aa34 <is_checker>
  40531e:	74 60                	je     405380 <validate+0x6c>
  405320:	39 3d 02 57 00 00    	cmp    %edi,0x5702(%rip)        # 40aa28 <vlevel>
  405326:	75 29                	jne    405351 <validate+0x3d>
  405328:	8b 35 f6 56 00 00    	mov    0x56f6(%rip),%esi        # 40aa24 <check_level>
  40532e:	39 fe                	cmp    %edi,%esi
  405330:	75 33                	jne    405365 <validate+0x51>
  405332:	0f be 35 e7 56 00 00 	movsbl 0x56e7(%rip),%esi        # 40aa20 <target_prefix>
  405339:	b9 40 aa 40 00       	mov    $0x40aa40,%ecx
  40533e:	89 fa                	mov    %edi,%edx
  405340:	bf 58 85 40 00       	mov    $0x408558,%edi
  405345:	b8 00 00 00 00       	mov    $0x0,%eax
  40534a:	e8 81 bd ff ff       	callq  4010d0 <printf@plt>
  40534f:	5b                   	pop    %rbx
  405350:	c3                   	retq   
  405351:	bf 3a 85 40 00       	mov    $0x40853a,%edi
  405356:	e8 35 bd ff ff       	callq  401090 <puts@plt>
  40535b:	b8 00 00 00 00       	mov    $0x0,%eax
  405360:	e8 8d fd ff ff       	callq  4050f2 <check_fail>
  405365:	89 fa                	mov    %edi,%edx
  405367:	bf 78 86 40 00       	mov    $0x408678,%edi
  40536c:	b8 00 00 00 00       	mov    $0x0,%eax
  405371:	e8 5a bd ff ff       	callq  4010d0 <printf@plt>
  405376:	b8 00 00 00 00       	mov    $0x0,%eax
  40537b:	e8 72 fd ff ff       	callq  4050f2 <check_fail>
  405380:	39 3d a2 56 00 00    	cmp    %edi,0x56a2(%rip)        # 40aa28 <vlevel>
  405386:	74 18                	je     4053a0 <validate+0x8c>
  405388:	bf 3a 85 40 00       	mov    $0x40853a,%edi
  40538d:	e8 fe bc ff ff       	callq  401090 <puts@plt>
  405392:	89 de                	mov    %ebx,%esi
  405394:	bf 00 00 00 00       	mov    $0x0,%edi
  405399:	e8 d5 fd ff ff       	callq  405173 <notify_server>
  40539e:	eb af                	jmp    40534f <validate+0x3b>
  4053a0:	0f be 15 79 56 00 00 	movsbl 0x5679(%rip),%edx        # 40aa20 <target_prefix>
  4053a7:	89 fe                	mov    %edi,%esi
  4053a9:	bf a0 86 40 00       	mov    $0x4086a0,%edi
  4053ae:	b8 00 00 00 00       	mov    $0x0,%eax
  4053b3:	e8 18 bd ff ff       	callq  4010d0 <printf@plt>
  4053b8:	89 de                	mov    %ebx,%esi
  4053ba:	bf 01 00 00 00       	mov    $0x1,%edi
  4053bf:	e8 af fd ff ff       	callq  405173 <notify_server>
  4053c4:	eb 89                	jmp    40534f <validate+0x3b>

00000000004053c6 <fail>:
  4053c6:	48 83 ec 08          	sub    $0x8,%rsp
  4053ca:	83 3d 63 56 00 00 00 	cmpl   $0x0,0x5663(%rip)        # 40aa34 <is_checker>
  4053d1:	75 11                	jne    4053e4 <fail+0x1e>
  4053d3:	89 fe                	mov    %edi,%esi
  4053d5:	bf 00 00 00 00       	mov    $0x0,%edi
  4053da:	e8 94 fd ff ff       	callq  405173 <notify_server>
  4053df:	48 83 c4 08          	add    $0x8,%rsp
  4053e3:	c3                   	retq   
  4053e4:	b8 00 00 00 00       	mov    $0x0,%eax
  4053e9:	e8 04 fd ff ff       	callq  4050f2 <check_fail>

00000000004053ee <bushandler>:
  4053ee:	48 83 ec 08          	sub    $0x8,%rsp
  4053f2:	83 3d 3b 56 00 00 00 	cmpl   $0x0,0x563b(%rip)        # 40aa34 <is_checker>
  4053f9:	74 14                	je     40540f <bushandler+0x21>
  4053fb:	bf 6d 85 40 00       	mov    $0x40856d,%edi
  405400:	e8 8b bc ff ff       	callq  401090 <puts@plt>
  405405:	b8 00 00 00 00       	mov    $0x0,%eax
  40540a:	e8 e3 fc ff ff       	callq  4050f2 <check_fail>
  40540f:	bf d8 86 40 00       	mov    $0x4086d8,%edi
  405414:	e8 77 bc ff ff       	callq  401090 <puts@plt>
  405419:	bf 77 85 40 00       	mov    $0x408577,%edi
  40541e:	e8 6d bc ff ff       	callq  401090 <puts@plt>
  405423:	be 00 00 00 00       	mov    $0x0,%esi
  405428:	bf 00 00 00 00       	mov    $0x0,%edi
  40542d:	e8 41 fd ff ff       	callq  405173 <notify_server>
  405432:	bf 01 00 00 00       	mov    $0x1,%edi
  405437:	e8 f4 bd ff ff       	callq  401230 <exit@plt>

000000000040543c <seghandler>:
  40543c:	48 83 ec 08          	sub    $0x8,%rsp
  405440:	83 3d ed 55 00 00 00 	cmpl   $0x0,0x55ed(%rip)        # 40aa34 <is_checker>
  405447:	74 14                	je     40545d <seghandler+0x21>
  405449:	bf 8d 85 40 00       	mov    $0x40858d,%edi
  40544e:	e8 3d bc ff ff       	callq  401090 <puts@plt>
  405453:	b8 00 00 00 00       	mov    $0x0,%eax
  405458:	e8 95 fc ff ff       	callq  4050f2 <check_fail>
  40545d:	bf f8 86 40 00       	mov    $0x4086f8,%edi
  405462:	e8 29 bc ff ff       	callq  401090 <puts@plt>
  405467:	bf 77 85 40 00       	mov    $0x408577,%edi
  40546c:	e8 1f bc ff ff       	callq  401090 <puts@plt>
  405471:	be 00 00 00 00       	mov    $0x0,%esi
  405476:	bf 00 00 00 00       	mov    $0x0,%edi
  40547b:	e8 f3 fc ff ff       	callq  405173 <notify_server>
  405480:	bf 01 00 00 00       	mov    $0x1,%edi
  405485:	e8 a6 bd ff ff       	callq  401230 <exit@plt>

000000000040548a <illegalhandler>:
  40548a:	48 83 ec 08          	sub    $0x8,%rsp
  40548e:	83 3d 9f 55 00 00 00 	cmpl   $0x0,0x559f(%rip)        # 40aa34 <is_checker>
  405495:	74 14                	je     4054ab <illegalhandler+0x21>
  405497:	bf a0 85 40 00       	mov    $0x4085a0,%edi
  40549c:	e8 ef bb ff ff       	callq  401090 <puts@plt>
  4054a1:	b8 00 00 00 00       	mov    $0x0,%eax
  4054a6:	e8 47 fc ff ff       	callq  4050f2 <check_fail>
  4054ab:	bf 20 87 40 00       	mov    $0x408720,%edi
  4054b0:	e8 db bb ff ff       	callq  401090 <puts@plt>
  4054b5:	bf 77 85 40 00       	mov    $0x408577,%edi
  4054ba:	e8 d1 bb ff ff       	callq  401090 <puts@plt>
  4054bf:	be 00 00 00 00       	mov    $0x0,%esi
  4054c4:	bf 00 00 00 00       	mov    $0x0,%edi
  4054c9:	e8 a5 fc ff ff       	callq  405173 <notify_server>
  4054ce:	bf 01 00 00 00       	mov    $0x1,%edi
  4054d3:	e8 58 bd ff ff       	callq  401230 <exit@plt>

00000000004054d8 <sigalrmhandler>:
  4054d8:	48 83 ec 08          	sub    $0x8,%rsp
  4054dc:	83 3d 51 55 00 00 00 	cmpl   $0x0,0x5551(%rip)        # 40aa34 <is_checker>
  4054e3:	74 14                	je     4054f9 <sigalrmhandler+0x21>
  4054e5:	bf b4 85 40 00       	mov    $0x4085b4,%edi
  4054ea:	e8 a1 bb ff ff       	callq  401090 <puts@plt>
  4054ef:	b8 00 00 00 00       	mov    $0x0,%eax
  4054f4:	e8 f9 fb ff ff       	callq  4050f2 <check_fail>
  4054f9:	be 05 00 00 00       	mov    $0x5,%esi
  4054fe:	bf 50 87 40 00       	mov    $0x408750,%edi
  405503:	b8 00 00 00 00       	mov    $0x0,%eax
  405508:	e8 c3 bb ff ff       	callq  4010d0 <printf@plt>
  40550d:	be 00 00 00 00       	mov    $0x0,%esi
  405512:	bf 00 00 00 00       	mov    $0x0,%edi
  405517:	e8 57 fc ff ff       	callq  405173 <notify_server>
  40551c:	bf 01 00 00 00       	mov    $0x1,%edi
  405521:	e8 0a bd ff ff       	callq  401230 <exit@plt>

0000000000405526 <launch>:
  405526:	55                   	push   %rbp
  405527:	48 89 e5             	mov    %rsp,%rbp
  40552a:	48 89 fa             	mov    %rdi,%rdx
  40552d:	48 8d 47 17          	lea    0x17(%rdi),%rax
  405531:	48 83 e0 f0          	and    $0xfffffffffffffff0,%rax
  405535:	48 29 c4             	sub    %rax,%rsp
  405538:	48 8d 7c 24 0f       	lea    0xf(%rsp),%rdi
  40553d:	48 83 e7 f0          	and    $0xfffffffffffffff0,%rdi
  405541:	be f4 00 00 00       	mov    $0xf4,%esi
  405546:	e8 95 bb ff ff       	callq  4010e0 <memset@plt>
  40554b:	48 8b 05 4e 54 00 00 	mov    0x544e(%rip),%rax        # 40a9a0 <stdin@@GLIBC_2.2.5>
  405552:	48 39 05 bf 54 00 00 	cmp    %rax,0x54bf(%rip)        # 40aa18 <infile>
  405559:	74 29                	je     405584 <launch+0x5e>
  40555b:	c7 05 c3 54 00 00 00 	movl   $0x0,0x54c3(%rip)        # 40aa28 <vlevel>
  405562:	00 00 00 
  405565:	b8 00 00 00 00       	mov    $0x0,%eax
  40556a:	e8 f5 fa ff ff       	callq  405064 <test>
  40556f:	83 3d be 54 00 00 00 	cmpl   $0x0,0x54be(%rip)        # 40aa34 <is_checker>
  405576:	75 1d                	jne    405595 <launch+0x6f>
  405578:	bf d4 85 40 00       	mov    $0x4085d4,%edi
  40557d:	e8 0e bb ff ff       	callq  401090 <puts@plt>
  405582:	c9                   	leaveq 
  405583:	c3                   	retq   
  405584:	bf bc 85 40 00       	mov    $0x4085bc,%edi
  405589:	b8 00 00 00 00       	mov    $0x0,%eax
  40558e:	e8 3d bb ff ff       	callq  4010d0 <printf@plt>
  405593:	eb c6                	jmp    40555b <launch+0x35>
  405595:	bf c9 85 40 00       	mov    $0x4085c9,%edi
  40559a:	e8 f1 ba ff ff       	callq  401090 <puts@plt>
  40559f:	b8 00 00 00 00       	mov    $0x0,%eax
  4055a4:	e8 49 fb ff ff       	callq  4050f2 <check_fail>

00000000004055a9 <stable_launch>:
  4055a9:	53                   	push   %rbx
  4055aa:	48 89 3d 5f 54 00 00 	mov    %rdi,0x545f(%rip)        # 40aa10 <global_offset>
  4055b1:	41 b9 00 00 00 00    	mov    $0x0,%r9d
  4055b7:	41 b8 00 00 00 00    	mov    $0x0,%r8d
  4055bd:	b9 32 01 00 00       	mov    $0x132,%ecx
  4055c2:	ba 07 00 00 00       	mov    $0x7,%edx
  4055c7:	be 00 00 10 00       	mov    $0x100000,%esi
  4055cc:	bf 00 60 58 55       	mov    $0x55586000,%edi
  4055d1:	e8 ea ba ff ff       	callq  4010c0 <mmap@plt>
  4055d6:	48 89 c3             	mov    %rax,%rbx
  4055d9:	48 3d 00 60 58 55    	cmp    $0x55586000,%rax
  4055df:	75 43                	jne    405624 <stable_launch+0x7b>
  4055e1:	48 8d 90 f8 ff 0f 00 	lea    0xffff8(%rax),%rdx
  4055e8:	48 89 15 19 54 00 00 	mov    %rdx,0x5419(%rip)        # 40aa08 <stack_top>
  4055ef:	48 89 e0             	mov    %rsp,%rax
  4055f2:	48 89 d4             	mov    %rdx,%rsp
  4055f5:	48 89 c2             	mov    %rax,%rdx
  4055f8:	48 89 15 01 54 00 00 	mov    %rdx,0x5401(%rip)        # 40aa00 <global_save_stack>
  4055ff:	48 8b 3d 0a 54 00 00 	mov    0x540a(%rip),%rdi        # 40aa10 <global_offset>
  405606:	e8 1b ff ff ff       	callq  405526 <launch>
  40560b:	48 8b 05 ee 53 00 00 	mov    0x53ee(%rip),%rax        # 40aa00 <global_save_stack>
  405612:	48 89 c4             	mov    %rax,%rsp
  405615:	be 00 00 10 00       	mov    $0x100000,%esi
  40561a:	48 89 df             	mov    %rbx,%rdi
  40561d:	e8 8e bb ff ff       	callq  4011b0 <munmap@plt>
  405622:	5b                   	pop    %rbx
  405623:	c3                   	retq   
  405624:	be 00 00 10 00       	mov    $0x100000,%esi
  405629:	48 89 c7             	mov    %rax,%rdi
  40562c:	e8 7f bb ff ff       	callq  4011b0 <munmap@plt>
  405631:	ba 00 60 58 55       	mov    $0x55586000,%edx
  405636:	be 88 87 40 00       	mov    $0x408788,%esi
  40563b:	48 8b 3d 9e 53 00 00 	mov    0x539e(%rip),%rdi        # 40a9e0 <stderr@@GLIBC_2.2.5>
  405642:	b8 00 00 00 00       	mov    $0x0,%eax
  405647:	e8 04 bb ff ff       	callq  401150 <fprintf@plt>
  40564c:	bf 01 00 00 00       	mov    $0x1,%edi
  405651:	e8 da bb ff ff       	callq  401230 <exit@plt>

0000000000405656 <rio_readinitb>:
  405656:	89 37                	mov    %esi,(%rdi)
  405658:	c7 47 04 00 00 00 00 	movl   $0x0,0x4(%rdi)
  40565f:	48 8d 47 10          	lea    0x10(%rdi),%rax
  405663:	48 89 47 08          	mov    %rax,0x8(%rdi)
  405667:	c3                   	retq   

0000000000405668 <sigalrm_handler>:
  405668:	48 83 ec 08          	sub    $0x8,%rsp
  40566c:	ba 00 00 00 00       	mov    $0x0,%edx
  405671:	be c0 87 40 00       	mov    $0x4087c0,%esi
  405676:	48 8b 3d 63 53 00 00 	mov    0x5363(%rip),%rdi        # 40a9e0 <stderr@@GLIBC_2.2.5>
  40567d:	b8 00 00 00 00       	mov    $0x0,%eax
  405682:	e8 c9 ba ff ff       	callq  401150 <fprintf@plt>
  405687:	bf 01 00 00 00       	mov    $0x1,%edi
  40568c:	e8 9f bb ff ff       	callq  401230 <exit@plt>

0000000000405691 <urlencode>:
  405691:	41 54                	push   %r12
  405693:	55                   	push   %rbp
  405694:	53                   	push   %rbx
  405695:	48 83 ec 10          	sub    $0x10,%rsp
  405699:	48 89 fb             	mov    %rdi,%rbx
  40569c:	48 89 f5             	mov    %rsi,%rbp
  40569f:	e8 0c ba ff ff       	callq  4010b0 <strlen@plt>
  4056a4:	eb 0e                	jmp    4056b4 <urlencode+0x23>
  4056a6:	88 55 00             	mov    %dl,0x0(%rbp)
  4056a9:	48 8d 6d 01          	lea    0x1(%rbp),%rbp
  4056ad:	48 83 c3 01          	add    $0x1,%rbx
  4056b1:	44 89 e0             	mov    %r12d,%eax
  4056b4:	44 8d 60 ff          	lea    -0x1(%rax),%r12d
  4056b8:	85 c0                	test   %eax,%eax
  4056ba:	0f 84 93 00 00 00    	je     405753 <urlencode+0xc2>
  4056c0:	0f b6 13             	movzbl (%rbx),%edx
  4056c3:	80 fa 2a             	cmp    $0x2a,%dl
  4056c6:	0f 94 c0             	sete   %al
  4056c9:	80 fa 2d             	cmp    $0x2d,%dl
  4056cc:	0f 94 c1             	sete   %cl
  4056cf:	08 c8                	or     %cl,%al
  4056d1:	75 d3                	jne    4056a6 <urlencode+0x15>
  4056d3:	80 fa 2e             	cmp    $0x2e,%dl
  4056d6:	74 ce                	je     4056a6 <urlencode+0x15>
  4056d8:	80 fa 5f             	cmp    $0x5f,%dl
  4056db:	74 c9                	je     4056a6 <urlencode+0x15>
  4056dd:	8d 42 d0             	lea    -0x30(%rdx),%eax
  4056e0:	3c 09                	cmp    $0x9,%al
  4056e2:	76 c2                	jbe    4056a6 <urlencode+0x15>
  4056e4:	8d 42 bf             	lea    -0x41(%rdx),%eax
  4056e7:	3c 19                	cmp    $0x19,%al
  4056e9:	76 bb                	jbe    4056a6 <urlencode+0x15>
  4056eb:	8d 42 9f             	lea    -0x61(%rdx),%eax
  4056ee:	3c 19                	cmp    $0x19,%al
  4056f0:	76 b4                	jbe    4056a6 <urlencode+0x15>
  4056f2:	80 fa 20             	cmp    $0x20,%dl
  4056f5:	74 4a                	je     405741 <urlencode+0xb0>
  4056f7:	8d 42 e0             	lea    -0x20(%rdx),%eax
  4056fa:	3c 5f                	cmp    $0x5f,%al
  4056fc:	0f 96 c0             	setbe  %al
  4056ff:	80 fa 09             	cmp    $0x9,%dl
  405702:	0f 94 c1             	sete   %cl
  405705:	08 c8                	or     %cl,%al
  405707:	74 45                	je     40574e <urlencode+0xbd>
  405709:	0f b6 d2             	movzbl %dl,%edx
  40570c:	be 55 88 40 00       	mov    $0x408855,%esi
  405711:	48 8d 7c 24 08       	lea    0x8(%rsp),%rdi
  405716:	b8 00 00 00 00       	mov    $0x0,%eax
  40571b:	e8 00 bb ff ff       	callq  401220 <sprintf@plt>
  405720:	0f b6 44 24 08       	movzbl 0x8(%rsp),%eax
  405725:	88 45 00             	mov    %al,0x0(%rbp)
  405728:	0f b6 44 24 09       	movzbl 0x9(%rsp),%eax
  40572d:	88 45 01             	mov    %al,0x1(%rbp)
  405730:	0f b6 44 24 0a       	movzbl 0xa(%rsp),%eax
  405735:	88 45 02             	mov    %al,0x2(%rbp)
  405738:	48 8d 6d 03          	lea    0x3(%rbp),%rbp
  40573c:	e9 6c ff ff ff       	jmpq   4056ad <urlencode+0x1c>
  405741:	c6 45 00 2b          	movb   $0x2b,0x0(%rbp)
  405745:	48 8d 6d 01          	lea    0x1(%rbp),%rbp
  405749:	e9 5f ff ff ff       	jmpq   4056ad <urlencode+0x1c>
  40574e:	b8 ff ff ff ff       	mov    $0xffffffff,%eax
  405753:	48 83 c4 10          	add    $0x10,%rsp
  405757:	5b                   	pop    %rbx
  405758:	5d                   	pop    %rbp
  405759:	41 5c                	pop    %r12
  40575b:	c3                   	retq   

000000000040575c <rio_writen>:
  40575c:	41 55                	push   %r13
  40575e:	41 54                	push   %r12
  405760:	55                   	push   %rbp
  405761:	53                   	push   %rbx
  405762:	48 83 ec 08          	sub    $0x8,%rsp
  405766:	41 89 fc             	mov    %edi,%r12d
  405769:	48 89 f5             	mov    %rsi,%rbp
  40576c:	49 89 d5             	mov    %rdx,%r13
  40576f:	48 89 d3             	mov    %rdx,%rbx
  405772:	eb 06                	jmp    40577a <rio_writen+0x1e>
  405774:	48 29 c3             	sub    %rax,%rbx
  405777:	48 01 c5             	add    %rax,%rbp
  40577a:	48 85 db             	test   %rbx,%rbx
  40577d:	74 24                	je     4057a3 <rio_writen+0x47>
  40577f:	48 89 da             	mov    %rbx,%rdx
  405782:	48 89 ee             	mov    %rbp,%rsi
  405785:	44 89 e7             	mov    %r12d,%edi
  405788:	e8 13 b9 ff ff       	callq  4010a0 <write@plt>
  40578d:	48 85 c0             	test   %rax,%rax
  405790:	7f e2                	jg     405774 <rio_writen+0x18>
  405792:	e8 a9 b8 ff ff       	callq  401040 <__errno_location@plt>
  405797:	83 38 04             	cmpl   $0x4,(%rax)
  40579a:	75 15                	jne    4057b1 <rio_writen+0x55>
  40579c:	b8 00 00 00 00       	mov    $0x0,%eax
  4057a1:	eb d1                	jmp    405774 <rio_writen+0x18>
  4057a3:	4c 89 e8             	mov    %r13,%rax
  4057a6:	48 83 c4 08          	add    $0x8,%rsp
  4057aa:	5b                   	pop    %rbx
  4057ab:	5d                   	pop    %rbp
  4057ac:	41 5c                	pop    %r12
  4057ae:	41 5d                	pop    %r13
  4057b0:	c3                   	retq   
  4057b1:	48 c7 c0 ff ff ff ff 	mov    $0xffffffffffffffff,%rax
  4057b8:	eb ec                	jmp    4057a6 <rio_writen+0x4a>

00000000004057ba <rio_read>:
  4057ba:	41 55                	push   %r13
  4057bc:	41 54                	push   %r12
  4057be:	55                   	push   %rbp
  4057bf:	53                   	push   %rbx
  4057c0:	48 83 ec 08          	sub    $0x8,%rsp
  4057c4:	48 89 fb             	mov    %rdi,%rbx
  4057c7:	49 89 f5             	mov    %rsi,%r13
  4057ca:	49 89 d4             	mov    %rdx,%r12
  4057cd:	eb 0a                	jmp    4057d9 <rio_read+0x1f>
  4057cf:	e8 6c b8 ff ff       	callq  401040 <__errno_location@plt>
  4057d4:	83 38 04             	cmpl   $0x4,(%rax)
  4057d7:	75 5a                	jne    405833 <rio_read+0x79>
  4057d9:	8b 6b 04             	mov    0x4(%rbx),%ebp
  4057dc:	85 ed                	test   %ebp,%ebp
  4057de:	7f 22                	jg     405802 <rio_read+0x48>
  4057e0:	48 8d 6b 10          	lea    0x10(%rbx),%rbp
  4057e4:	ba 00 20 00 00       	mov    $0x2000,%edx
  4057e9:	48 89 ee             	mov    %rbp,%rsi
  4057ec:	8b 3b                	mov    (%rbx),%edi
  4057ee:	e8 1d b9 ff ff       	callq  401110 <read@plt>
  4057f3:	89 43 04             	mov    %eax,0x4(%rbx)
  4057f6:	85 c0                	test   %eax,%eax
  4057f8:	78 d5                	js     4057cf <rio_read+0x15>
  4057fa:	74 40                	je     40583c <rio_read+0x82>
  4057fc:	48 89 6b 08          	mov    %rbp,0x8(%rbx)
  405800:	eb d7                	jmp    4057d9 <rio_read+0x1f>
  405802:	89 e8                	mov    %ebp,%eax
  405804:	4c 39 e0             	cmp    %r12,%rax
  405807:	72 03                	jb     40580c <rio_read+0x52>
  405809:	44 89 e5             	mov    %r12d,%ebp
  40580c:	4c 63 e5             	movslq %ebp,%r12
  40580f:	48 8b 73 08          	mov    0x8(%rbx),%rsi
  405813:	4c 89 e2             	mov    %r12,%rdx
  405816:	4c 89 ef             	mov    %r13,%rdi
  405819:	e8 52 b9 ff ff       	callq  401170 <memcpy@plt>
  40581e:	4c 01 63 08          	add    %r12,0x8(%rbx)
  405822:	29 6b 04             	sub    %ebp,0x4(%rbx)
  405825:	4c 89 e0             	mov    %r12,%rax
  405828:	48 83 c4 08          	add    $0x8,%rsp
  40582c:	5b                   	pop    %rbx
  40582d:	5d                   	pop    %rbp
  40582e:	41 5c                	pop    %r12
  405830:	41 5d                	pop    %r13
  405832:	c3                   	retq   
  405833:	48 c7 c0 ff ff ff ff 	mov    $0xffffffffffffffff,%rax
  40583a:	eb ec                	jmp    405828 <rio_read+0x6e>
  40583c:	b8 00 00 00 00       	mov    $0x0,%eax
  405841:	eb e5                	jmp    405828 <rio_read+0x6e>

0000000000405843 <rio_readlineb>:
  405843:	41 55                	push   %r13
  405845:	41 54                	push   %r12
  405847:	55                   	push   %rbp
  405848:	53                   	push   %rbx
  405849:	48 83 ec 18          	sub    $0x18,%rsp
  40584d:	49 89 fd             	mov    %rdi,%r13
  405850:	48 89 f5             	mov    %rsi,%rbp
  405853:	49 89 d4             	mov    %rdx,%r12
  405856:	bb 01 00 00 00       	mov    $0x1,%ebx
  40585b:	eb 18                	jmp    405875 <rio_readlineb+0x32>
  40585d:	85 c0                	test   %eax,%eax
  40585f:	75 55                	jne    4058b6 <rio_readlineb+0x73>
  405861:	48 83 fb 01          	cmp    $0x1,%rbx
  405865:	75 3d                	jne    4058a4 <rio_readlineb+0x61>
  405867:	b8 00 00 00 00       	mov    $0x0,%eax
  40586c:	eb 3d                	jmp    4058ab <rio_readlineb+0x68>
  40586e:	48 83 c3 01          	add    $0x1,%rbx
  405872:	48 89 d5             	mov    %rdx,%rbp
  405875:	4c 39 e3             	cmp    %r12,%rbx
  405878:	73 2a                	jae    4058a4 <rio_readlineb+0x61>
  40587a:	ba 01 00 00 00       	mov    $0x1,%edx
  40587f:	48 8d 74 24 0f       	lea    0xf(%rsp),%rsi
  405884:	4c 89 ef             	mov    %r13,%rdi
  405887:	e8 2e ff ff ff       	callq  4057ba <rio_read>
  40588c:	83 f8 01             	cmp    $0x1,%eax
  40588f:	75 cc                	jne    40585d <rio_readlineb+0x1a>
  405891:	48 8d 55 01          	lea    0x1(%rbp),%rdx
  405895:	0f b6 44 24 0f       	movzbl 0xf(%rsp),%eax
  40589a:	88 45 00             	mov    %al,0x0(%rbp)
  40589d:	3c 0a                	cmp    $0xa,%al
  40589f:	75 cd                	jne    40586e <rio_readlineb+0x2b>
  4058a1:	48 89 d5             	mov    %rdx,%rbp
  4058a4:	c6 45 00 00          	movb   $0x0,0x0(%rbp)
  4058a8:	48 89 d8             	mov    %rbx,%rax
  4058ab:	48 83 c4 18          	add    $0x18,%rsp
  4058af:	5b                   	pop    %rbx
  4058b0:	5d                   	pop    %rbp
  4058b1:	41 5c                	pop    %r12
  4058b3:	41 5d                	pop    %r13
  4058b5:	c3                   	retq   
  4058b6:	48 c7 c0 ff ff ff ff 	mov    $0xffffffffffffffff,%rax
  4058bd:	eb ec                	jmp    4058ab <rio_readlineb+0x68>

00000000004058bf <submitr>:
  4058bf:	41 57                	push   %r15
  4058c1:	41 56                	push   %r14
  4058c3:	41 55                	push   %r13
  4058c5:	41 54                	push   %r12
  4058c7:	55                   	push   %rbp
  4058c8:	53                   	push   %rbx
  4058c9:	48 81 ec 38 a0 00 00 	sub    $0xa038,%rsp
  4058d0:	48 89 7c 24 18       	mov    %rdi,0x18(%rsp)
  4058d5:	49 89 d5             	mov    %rdx,%r13
  4058d8:	49 89 cc             	mov    %rcx,%r12
  4058db:	4c 89 44 24 08       	mov    %r8,0x8(%rsp)
  4058e0:	4d 89 ce             	mov    %r9,%r14
  4058e3:	48 8b ac 24 70 a0 00 	mov    0xa070(%rsp),%rbp
  4058ea:	00 
  4058eb:	ba 00 00 00 00       	mov    $0x0,%edx
  4058f0:	be 01 00 00 00       	mov    $0x1,%esi
  4058f5:	bf 02 00 00 00       	mov    $0x2,%edi
  4058fa:	e8 71 b9 ff ff       	callq  401270 <socket@plt>
  4058ff:	85 c0                	test   %eax,%eax
  405901:	0f 88 2f 01 00 00    	js     405a36 <submitr+0x177>
  405907:	89 c3                	mov    %eax,%ebx
  405909:	ba 10 00 00 00       	mov    $0x10,%edx
  40590e:	be 50 b6 40 00       	mov    $0x40b650,%esi
  405913:	89 c7                	mov    %eax,%edi
  405915:	e8 26 b9 ff ff       	callq  401240 <connect@plt>
  40591a:	85 c0                	test   %eax,%eax
  40591c:	0f 88 63 01 00 00    	js     405a85 <submitr+0x1c6>
  405922:	4c 89 f7             	mov    %r14,%rdi
  405925:	e8 86 b7 ff ff       	callq  4010b0 <strlen@plt>
  40592a:	49 89 c7             	mov    %rax,%r15
  40592d:	4c 89 ef             	mov    %r13,%rdi
  405930:	e8 7b b7 ff ff       	callq  4010b0 <strlen@plt>
  405935:	48 89 44 24 10       	mov    %rax,0x10(%rsp)
  40593a:	4c 89 e7             	mov    %r12,%rdi
  40593d:	e8 6e b7 ff ff       	callq  4010b0 <strlen@plt>
  405942:	48 03 44 24 10       	add    0x10(%rsp),%rax
  405947:	48 89 44 24 10       	mov    %rax,0x10(%rsp)
  40594c:	48 8b 7c 24 08       	mov    0x8(%rsp),%rdi
  405951:	e8 5a b7 ff ff       	callq  4010b0 <strlen@plt>
  405956:	48 03 44 24 10       	add    0x10(%rsp),%rax
  40595b:	4b 8d 14 7f          	lea    (%r15,%r15,2),%rdx
  40595f:	48 8d 84 10 80 00 00 	lea    0x80(%rax,%rdx,1),%rax
  405966:	00 
  405967:	48 3d 00 20 00 00    	cmp    $0x2000,%rax
  40596d:	0f 87 6c 01 00 00    	ja     405adf <submitr+0x220>
  405973:	48 8d b4 24 20 40 00 	lea    0x4020(%rsp),%rsi
  40597a:	00 
  40597b:	b9 00 04 00 00       	mov    $0x400,%ecx
  405980:	b8 00 00 00 00       	mov    $0x0,%eax
  405985:	48 89 f7             	mov    %rsi,%rdi
  405988:	f3 48 ab             	rep stos %rax,%es:(%rdi)
  40598b:	4c 89 f7             	mov    %r14,%rdi
  40598e:	e8 fe fc ff ff       	callq  405691 <urlencode>
  405993:	85 c0                	test   %eax,%eax
  405995:	0f 88 b7 01 00 00    	js     405b52 <submitr+0x293>
  40599b:	4c 8b 4c 24 18       	mov    0x18(%rsp),%r9
  4059a0:	4c 8d 84 24 20 40 00 	lea    0x4020(%rsp),%r8
  4059a7:	00 
  4059a8:	4c 89 e9             	mov    %r13,%rcx
  4059ab:	4c 89 e2             	mov    %r12,%rdx
  4059ae:	be e8 87 40 00       	mov    $0x4087e8,%esi
  4059b3:	48 8d bc 24 20 60 00 	lea    0x6020(%rsp),%rdi
  4059ba:	00 
  4059bb:	b8 00 00 00 00       	mov    $0x0,%eax
  4059c0:	e8 5b b8 ff ff       	callq  401220 <sprintf@plt>
  4059c5:	48 8d bc 24 20 60 00 	lea    0x6020(%rsp),%rdi
  4059cc:	00 
  4059cd:	e8 de b6 ff ff       	callq  4010b0 <strlen@plt>
  4059d2:	48 89 c2             	mov    %rax,%rdx
  4059d5:	48 8d b4 24 20 60 00 	lea    0x6020(%rsp),%rsi
  4059dc:	00 
  4059dd:	89 df                	mov    %ebx,%edi
  4059df:	e8 78 fd ff ff       	callq  40575c <rio_writen>
  4059e4:	48 85 c0             	test   %rax,%rax
  4059e7:	0f 88 f0 01 00 00    	js     405bdd <submitr+0x31e>
  4059ed:	89 de                	mov    %ebx,%esi
  4059ef:	48 8d bc 24 20 80 00 	lea    0x8020(%rsp),%rdi
  4059f6:	00 
  4059f7:	e8 5a fc ff ff       	callq  405656 <rio_readinitb>
  4059fc:	ba 00 20 00 00       	mov    $0x2000,%edx
  405a01:	48 8d b4 24 20 60 00 	lea    0x6020(%rsp),%rsi
  405a08:	00 
  405a09:	48 8d bc 24 20 80 00 	lea    0x8020(%rsp),%rdi
  405a10:	00 
  405a11:	e8 2d fe ff ff       	callq  405843 <rio_readlineb>
  405a16:	48 85 c0             	test   %rax,%rax
  405a19:	0f 8e 2d 02 00 00    	jle    405c4c <submitr+0x38d>
  405a1f:	c6 84 24 20 20 00 00 	movb   $0x0,0x2020(%rsp)
  405a26:	00 
  405a27:	c6 44 24 20 00       	movb   $0x0,0x20(%rsp)
  405a2c:	ba 00 00 00 00       	mov    $0x0,%edx
  405a31:	e9 97 02 00 00       	jmpq   405ccd <submitr+0x40e>
  405a36:	48 b8 45 72 72 6f 72 	movabs $0x43203a726f727245,%rax
  405a3d:	3a 20 43 
  405a40:	48 ba 6c 69 65 6e 74 	movabs $0x6e7520746e65696c,%rdx
  405a47:	20 75 6e 
  405a4a:	48 89 45 00          	mov    %rax,0x0(%rbp)
  405a4e:	48 89 55 08          	mov    %rdx,0x8(%rbp)
  405a52:	48 b8 61 62 6c 65 20 	movabs $0x206f7420656c6261,%rax
  405a59:	74 6f 20 
  405a5c:	48 ba 63 72 65 61 74 	movabs $0x7320657461657263,%rdx
  405a63:	65 20 73 
  405a66:	48 89 45 10          	mov    %rax,0x10(%rbp)
  405a6a:	48 89 55 18          	mov    %rdx,0x18(%rbp)
  405a6e:	c7 45 20 6f 63 6b 65 	movl   $0x656b636f,0x20(%rbp)
  405a75:	66 c7 45 24 74 00    	movw   $0x74,0x24(%rbp)
  405a7b:	b8 ff ff ff ff       	mov    $0xffffffff,%eax
  405a80:	e9 17 03 00 00       	jmpq   405d9c <submitr+0x4dd>
  405a85:	48 b8 45 72 72 6f 72 	movabs $0x55203a726f727245,%rax
  405a8c:	3a 20 55 
  405a8f:	48 ba 6e 61 62 6c 65 	movabs $0x6f7420656c62616e,%rdx
  405a96:	20 74 6f 
  405a99:	48 89 45 00          	mov    %rax,0x0(%rbp)
  405a9d:	48 89 55 08          	mov    %rdx,0x8(%rbp)
  405aa1:	48 b8 20 63 6f 6e 6e 	movabs $0x7463656e6e6f6320,%rax
  405aa8:	65 63 74 
  405aab:	48 ba 20 74 6f 20 74 	movabs $0x20656874206f7420,%rdx
  405ab2:	68 65 20 
  405ab5:	48 89 45 10          	mov    %rax,0x10(%rbp)
  405ab9:	48 89 55 18          	mov    %rdx,0x18(%rbp)
  405abd:	c7 45 20 73 65 72 76 	movl   $0x76726573,0x20(%rbp)
  405ac4:	66 c7 45 24 65 72    	movw   $0x7265,0x24(%rbp)
  405aca:	c6 45 26 00          	movb   $0x0,0x26(%rbp)
  405ace:	89 df                	mov    %ebx,%edi
  405ad0:	e8 2b b6 ff ff       	callq  401100 <close@plt>
  405ad5:	b8 ff ff ff ff       	mov    $0xffffffff,%eax
  405ada:	e9 bd 02 00 00       	jmpq   405d9c <submitr+0x4dd>
  405adf:	48 b8 45 72 72 6f 72 	movabs $0x52203a726f727245,%rax
  405ae6:	3a 20 52 
  405ae9:	48 ba 65 73 75 6c 74 	movabs $0x747320746c757365,%rdx
  405af0:	20 73 74 
  405af3:	48 89 45 00          	mov    %rax,0x0(%rbp)
  405af7:	48 89 55 08          	mov    %rdx,0x8(%rbp)
  405afb:	48 b8 72 69 6e 67 20 	movabs $0x6f6f7420676e6972,%rax
  405b02:	74 6f 6f 
  405b05:	48 ba 20 6c 61 72 67 	movabs $0x202e656772616c20,%rdx
  405b0c:	65 2e 20 
  405b0f:	48 89 45 10          	mov    %rax,0x10(%rbp)
  405b13:	48 89 55 18          	mov    %rdx,0x18(%rbp)
  405b17:	48 b8 49 6e 63 72 65 	movabs $0x6573616572636e49,%rax
  405b1e:	61 73 65 
  405b21:	48 ba 20 53 55 42 4d 	movabs $0x5254494d42555320,%rdx
  405b28:	49 54 52 
  405b2b:	48 89 45 20          	mov    %rax,0x20(%rbp)
  405b2f:	48 89 55 28          	mov    %rdx,0x28(%rbp)
  405b33:	48 b8 5f 4d 41 58 42 	movabs $0x46554258414d5f,%rax
  405b3a:	55 46 00 
  405b3d:	48 89 45 30          	mov    %rax,0x30(%rbp)
  405b41:	89 df                	mov    %ebx,%edi
  405b43:	e8 b8 b5 ff ff       	callq  401100 <close@plt>
  405b48:	b8 ff ff ff ff       	mov    $0xffffffff,%eax
  405b4d:	e9 4a 02 00 00       	jmpq   405d9c <submitr+0x4dd>
  405b52:	48 b8 45 72 72 6f 72 	movabs $0x52203a726f727245,%rax
  405b59:	3a 20 52 
  405b5c:	48 ba 65 73 75 6c 74 	movabs $0x747320746c757365,%rdx
  405b63:	20 73 74 
  405b66:	48 89 45 00          	mov    %rax,0x0(%rbp)
  405b6a:	48 89 55 08          	mov    %rdx,0x8(%rbp)
  405b6e:	48 b8 72 69 6e 67 20 	movabs $0x6e6f6320676e6972,%rax
  405b75:	63 6f 6e 
  405b78:	48 ba 74 61 69 6e 73 	movabs $0x6e6120736e696174,%rdx
  405b7f:	20 61 6e 
  405b82:	48 89 45 10          	mov    %rax,0x10(%rbp)
  405b86:	48 89 55 18          	mov    %rdx,0x18(%rbp)
  405b8a:	48 b8 20 69 6c 6c 65 	movabs $0x6c6167656c6c6920,%rax
  405b91:	67 61 6c 
  405b94:	48 ba 20 6f 72 20 75 	movabs $0x72706e7520726f20,%rdx
  405b9b:	6e 70 72 
  405b9e:	48 89 45 20          	mov    %rax,0x20(%rbp)
  405ba2:	48 89 55 28          	mov    %rdx,0x28(%rbp)
  405ba6:	48 b8 69 6e 74 61 62 	movabs $0x20656c6261746e69,%rax
  405bad:	6c 65 20 
  405bb0:	48 ba 63 68 61 72 61 	movabs $0x6574636172616863,%rdx
  405bb7:	63 74 65 
  405bba:	48 89 45 30          	mov    %rax,0x30(%rbp)
  405bbe:	48 89 55 38          	mov    %rdx,0x38(%rbp)
  405bc2:	66 c7 45 40 72 2e    	movw   $0x2e72,0x40(%rbp)
  405bc8:	c6 45 42 00          	movb   $0x0,0x42(%rbp)
  405bcc:	89 df                	mov    %ebx,%edi
  405bce:	e8 2d b5 ff ff       	callq  401100 <close@plt>
  405bd3:	b8 ff ff ff ff       	mov    $0xffffffff,%eax
  405bd8:	e9 bf 01 00 00       	jmpq   405d9c <submitr+0x4dd>
  405bdd:	48 b8 45 72 72 6f 72 	movabs $0x43203a726f727245,%rax
  405be4:	3a 20 43 
  405be7:	48 ba 6c 69 65 6e 74 	movabs $0x6e7520746e65696c,%rdx
  405bee:	20 75 6e 
  405bf1:	48 89 45 00          	mov    %rax,0x0(%rbp)
  405bf5:	48 89 55 08          	mov    %rdx,0x8(%rbp)
  405bf9:	48 b8 61 62 6c 65 20 	movabs $0x206f7420656c6261,%rax
  405c00:	74 6f 20 
  405c03:	48 ba 77 72 69 74 65 	movabs $0x6f74206574697277,%rdx
  405c0a:	20 74 6f 
  405c0d:	48 89 45 10          	mov    %rax,0x10(%rbp)
  405c11:	48 89 55 18          	mov    %rdx,0x18(%rbp)
  405c15:	48 b8 20 74 68 65 20 	movabs $0x7365722065687420,%rax
  405c1c:	72 65 73 
  405c1f:	48 ba 75 6c 74 20 73 	movabs $0x7672657320746c75,%rdx
  405c26:	65 72 76 
  405c29:	48 89 45 20          	mov    %rax,0x20(%rbp)
  405c2d:	48 89 55 28          	mov    %rdx,0x28(%rbp)
  405c31:	66 c7 45 30 65 72    	movw   $0x7265,0x30(%rbp)
  405c37:	c6 45 32 00          	movb   $0x0,0x32(%rbp)
  405c3b:	89 df                	mov    %ebx,%edi
  405c3d:	e8 be b4 ff ff       	callq  401100 <close@plt>
  405c42:	b8 ff ff ff ff       	mov    $0xffffffff,%eax
  405c47:	e9 50 01 00 00       	jmpq   405d9c <submitr+0x4dd>
  405c4c:	48 b8 45 72 72 6f 72 	movabs $0x43203a726f727245,%rax
  405c53:	3a 20 43 
  405c56:	48 ba 6c 69 65 6e 74 	movabs $0x6e7520746e65696c,%rdx
  405c5d:	20 75 6e 
  405c60:	48 89 45 00          	mov    %rax,0x0(%rbp)
  405c64:	48 89 55 08          	mov    %rdx,0x8(%rbp)
  405c68:	48 b8 61 62 6c 65 20 	movabs $0x206f7420656c6261,%rax
  405c6f:	74 6f 20 
  405c72:	48 ba 72 65 61 64 20 	movabs $0x7269662064616572,%rdx
  405c79:	66 69 72 
  405c7c:	48 89 45 10          	mov    %rax,0x10(%rbp)
  405c80:	48 89 55 18          	mov    %rdx,0x18(%rbp)
  405c84:	48 b8 73 74 20 68 65 	movabs $0x6564616568207473,%rax
  405c8b:	61 64 65 
  405c8e:	48 ba 72 20 66 72 6f 	movabs $0x72206d6f72662072,%rdx
  405c95:	6d 20 72 
  405c98:	48 89 45 20          	mov    %rax,0x20(%rbp)
  405c9c:	48 89 55 28          	mov    %rdx,0x28(%rbp)
  405ca0:	48 b8 65 73 75 6c 74 	movabs $0x657320746c757365,%rax
  405ca7:	20 73 65 
  405caa:	48 89 45 30          	mov    %rax,0x30(%rbp)
  405cae:	c7 45 38 72 76 65 72 	movl   $0x72657672,0x38(%rbp)
  405cb5:	c6 45 3c 00          	movb   $0x0,0x3c(%rbp)
  405cb9:	89 df                	mov    %ebx,%edi
  405cbb:	e8 40 b4 ff ff       	callq  401100 <close@plt>
  405cc0:	b8 ff ff ff ff       	mov    $0xffffffff,%eax
  405cc5:	e9 d2 00 00 00       	jmpq   405d9c <submitr+0x4dd>
  405cca:	83 c2 01             	add    $0x1,%edx
  405ccd:	48 63 c2             	movslq %edx,%rax
  405cd0:	0f b6 84 04 20 60 00 	movzbl 0x6020(%rsp,%rax,1),%eax
  405cd7:	00 
  405cd8:	84 c0                	test   %al,%al
  405cda:	74 04                	je     405ce0 <submitr+0x421>
  405cdc:	3c 20                	cmp    $0x20,%al
  405cde:	75 ea                	jne    405cca <submitr+0x40b>
  405ce0:	3c 20                	cmp    $0x20,%al
  405ce2:	0f 84 c6 00 00 00    	je     405dae <submitr+0x4ef>
  405ce8:	41 bc 63 00 00 00    	mov    $0x63,%r12d
  405cee:	be 62 88 40 00       	mov    $0x408862,%esi
  405cf3:	48 8d bc 24 20 60 00 	lea    0x6020(%rsp),%rdi
  405cfa:	00 
  405cfb:	e8 20 b4 ff ff       	callq  401120 <strcmp@plt>
  405d00:	85 c0                	test   %eax,%eax
  405d02:	0f 84 4b 01 00 00    	je     405e53 <submitr+0x594>
  405d08:	ba 00 20 00 00       	mov    $0x2000,%edx
  405d0d:	48 8d b4 24 20 60 00 	lea    0x6020(%rsp),%rsi
  405d14:	00 
  405d15:	48 8d bc 24 20 80 00 	lea    0x8020(%rsp),%rdi
  405d1c:	00 
  405d1d:	e8 21 fb ff ff       	callq  405843 <rio_readlineb>
  405d22:	48 85 c0             	test   %rax,%rax
  405d25:	7f c7                	jg     405cee <submitr+0x42f>
  405d27:	48 b8 45 72 72 6f 72 	movabs $0x43203a726f727245,%rax
  405d2e:	3a 20 43 
  405d31:	48 ba 6c 69 65 6e 74 	movabs $0x6e7520746e65696c,%rdx
  405d38:	20 75 6e 
  405d3b:	48 89 45 00          	mov    %rax,0x0(%rbp)
  405d3f:	48 89 55 08          	mov    %rdx,0x8(%rbp)
  405d43:	48 b8 61 62 6c 65 20 	movabs $0x206f7420656c6261,%rax
  405d4a:	74 6f 20 
  405d4d:	48 ba 72 65 61 64 20 	movabs $0x6165682064616572,%rdx
  405d54:	68 65 61 
  405d57:	48 89 45 10          	mov    %rax,0x10(%rbp)
  405d5b:	48 89 55 18          	mov    %rdx,0x18(%rbp)
  405d5f:	48 b8 64 65 72 73 20 	movabs $0x6f72662073726564,%rax
  405d66:	66 72 6f 
  405d69:	48 ba 6d 20 74 68 65 	movabs $0x657220656874206d,%rdx
  405d70:	20 72 65 
  405d73:	48 89 45 20          	mov    %rax,0x20(%rbp)
  405d77:	48 89 55 28          	mov    %rdx,0x28(%rbp)
  405d7b:	48 b8 73 75 6c 74 20 	movabs $0x72657320746c7573,%rax
  405d82:	73 65 72 
  405d85:	48 89 45 30          	mov    %rax,0x30(%rbp)
  405d89:	c7 45 38 76 65 72 00 	movl   $0x726576,0x38(%rbp)
  405d90:	89 df                	mov    %ebx,%edi
  405d92:	e8 69 b3 ff ff       	callq  401100 <close@plt>
  405d97:	b8 ff ff ff ff       	mov    $0xffffffff,%eax
  405d9c:	48 81 c4 38 a0 00 00 	add    $0xa038,%rsp
  405da3:	5b                   	pop    %rbx
  405da4:	5d                   	pop    %rbp
  405da5:	41 5c                	pop    %r12
  405da7:	41 5d                	pop    %r13
  405da9:	41 5e                	pop    %r14
  405dab:	41 5f                	pop    %r15
  405dad:	c3                   	retq   
  405dae:	44 8d 62 01          	lea    0x1(%rdx),%r12d
  405db2:	48 63 d2             	movslq %edx,%rdx
  405db5:	c6 84 14 20 60 00 00 	movb   $0x0,0x6020(%rsp,%rdx,1)
  405dbc:	00 
  405dbd:	ba 00 20 00 00       	mov    $0x2000,%edx
  405dc2:	48 8d b4 24 20 60 00 	lea    0x6020(%rsp),%rsi
  405dc9:	00 
  405dca:	48 8d bc 24 20 20 00 	lea    0x2020(%rsp),%rdi
  405dd1:	00 
  405dd2:	e8 89 b2 ff ff       	callq  401060 <strncpy@plt>
  405dd7:	44 89 e2             	mov    %r12d,%edx
  405dda:	eb 03                	jmp    405ddf <submitr+0x520>
  405ddc:	83 c2 01             	add    $0x1,%edx
  405ddf:	48 63 c2             	movslq %edx,%rax
  405de2:	0f b6 84 04 20 60 00 	movzbl 0x6020(%rsp,%rax,1),%eax
  405de9:	00 
  405dea:	84 c0                	test   %al,%al
  405dec:	74 04                	je     405df2 <submitr+0x533>
  405dee:	3c 20                	cmp    $0x20,%al
  405df0:	75 ea                	jne    405ddc <submitr+0x51d>
  405df2:	3c 20                	cmp    $0x20,%al
  405df4:	74 0b                	je     405e01 <submitr+0x542>
  405df6:	41 bc 63 00 00 00    	mov    $0x63,%r12d
  405dfc:	e9 ed fe ff ff       	jmpq   405cee <submitr+0x42f>
  405e01:	44 8d 6a 01          	lea    0x1(%rdx),%r13d
  405e05:	48 63 d2             	movslq %edx,%rdx
  405e08:	c6 84 14 20 60 00 00 	movb   $0x0,0x6020(%rsp,%rdx,1)
  405e0f:	00 
  405e10:	49 63 fc             	movslq %r12d,%rdi
  405e13:	48 8d 84 24 20 60 00 	lea    0x6020(%rsp),%rax
  405e1a:	00 
  405e1b:	48 01 c7             	add    %rax,%rdi
  405e1e:	ba 0a 00 00 00       	mov    $0xa,%edx
  405e23:	be 00 00 00 00       	mov    $0x0,%esi
  405e28:	e8 33 b3 ff ff       	callq  401160 <strtol@plt>
  405e2d:	41 89 c4             	mov    %eax,%r12d
  405e30:	4d 63 ed             	movslq %r13d,%r13
  405e33:	48 8d 84 24 20 60 00 	lea    0x6020(%rsp),%rax
  405e3a:	00 
  405e3b:	4a 8d 34 28          	lea    (%rax,%r13,1),%rsi
  405e3f:	ba 00 20 00 00       	mov    $0x2000,%edx
  405e44:	48 8d 7c 24 20       	lea    0x20(%rsp),%rdi
  405e49:	e8 12 b2 ff ff       	callq  401060 <strncpy@plt>
  405e4e:	e9 9b fe ff ff       	jmpq   405cee <submitr+0x42f>
  405e53:	ba 00 20 00 00       	mov    $0x2000,%edx
  405e58:	48 8d b4 24 20 60 00 	lea    0x6020(%rsp),%rsi
  405e5f:	00 
  405e60:	48 8d bc 24 20 80 00 	lea    0x8020(%rsp),%rdi
  405e67:	00 
  405e68:	e8 d6 f9 ff ff       	callq  405843 <rio_readlineb>
  405e6d:	48 85 c0             	test   %rax,%rax
  405e70:	7e 6d                	jle    405edf <submitr+0x620>
  405e72:	41 81 fc c8 00 00 00 	cmp    $0xc8,%r12d
  405e79:	0f 85 e4 00 00 00    	jne    405f63 <submitr+0x6a4>
  405e7f:	48 8d b4 24 20 60 00 	lea    0x6020(%rsp),%rsi
  405e86:	00 
  405e87:	48 89 ef             	mov    %rbp,%rdi
  405e8a:	e8 f1 b1 ff ff       	callq  401080 <strcpy@plt>
  405e8f:	89 df                	mov    %ebx,%edi
  405e91:	e8 6a b2 ff ff       	callq  401100 <close@plt>
  405e96:	be 5c 88 40 00       	mov    $0x40885c,%esi
  405e9b:	48 89 ef             	mov    %rbp,%rdi
  405e9e:	e8 7d b2 ff ff       	callq  401120 <strcmp@plt>
  405ea3:	85 c0                	test   %eax,%eax
  405ea5:	0f 84 f1 fe ff ff    	je     405d9c <submitr+0x4dd>
  405eab:	be 60 88 40 00       	mov    $0x408860,%esi
  405eb0:	48 89 ef             	mov    %rbp,%rdi
  405eb3:	e8 68 b2 ff ff       	callq  401120 <strcmp@plt>
  405eb8:	85 c0                	test   %eax,%eax
  405eba:	0f 84 dc fe ff ff    	je     405d9c <submitr+0x4dd>
  405ec0:	be 65 88 40 00       	mov    $0x408865,%esi
  405ec5:	48 89 ef             	mov    %rbp,%rdi
  405ec8:	e8 53 b2 ff ff       	callq  401120 <strcmp@plt>
  405ecd:	85 c0                	test   %eax,%eax
  405ecf:	0f 84 c7 fe ff ff    	je     405d9c <submitr+0x4dd>
  405ed5:	b8 ff ff ff ff       	mov    $0xffffffff,%eax
  405eda:	e9 bd fe ff ff       	jmpq   405d9c <submitr+0x4dd>
  405edf:	48 b8 45 72 72 6f 72 	movabs $0x43203a726f727245,%rax
  405ee6:	3a 20 43 
  405ee9:	48 ba 6c 69 65 6e 74 	movabs $0x6e7520746e65696c,%rdx
  405ef0:	20 75 6e 
  405ef3:	48 89 45 00          	mov    %rax,0x0(%rbp)
  405ef7:	48 89 55 08          	mov    %rdx,0x8(%rbp)
  405efb:	48 b8 61 62 6c 65 20 	movabs $0x206f7420656c6261,%rax
  405f02:	74 6f 20 
  405f05:	48 ba 72 65 61 64 20 	movabs $0x6174732064616572,%rdx
  405f0c:	73 74 61 
  405f0f:	48 89 45 10          	mov    %rax,0x10(%rbp)
  405f13:	48 89 55 18          	mov    %rdx,0x18(%rbp)
  405f17:	48 b8 74 75 73 20 6d 	movabs $0x7373656d20737574,%rax
  405f1e:	65 73 73 
  405f21:	48 ba 61 67 65 20 66 	movabs $0x6d6f726620656761,%rdx
  405f28:	72 6f 6d 
  405f2b:	48 89 45 20          	mov    %rax,0x20(%rbp)
  405f2f:	48 89 55 28          	mov    %rdx,0x28(%rbp)
  405f33:	48 b8 20 72 65 73 75 	movabs $0x20746c7573657220,%rax
  405f3a:	6c 74 20 
  405f3d:	48 89 45 30          	mov    %rax,0x30(%rbp)
  405f41:	c7 45 38 73 65 72 76 	movl   $0x76726573,0x38(%rbp)
  405f48:	66 c7 45 3c 65 72    	movw   $0x7265,0x3c(%rbp)
  405f4e:	c6 45 3e 00          	movb   $0x0,0x3e(%rbp)
  405f52:	89 df                	mov    %ebx,%edi
  405f54:	e8 a7 b1 ff ff       	callq  401100 <close@plt>
  405f59:	b8 ff ff ff ff       	mov    $0xffffffff,%eax
  405f5e:	e9 39 fe ff ff       	jmpq   405d9c <submitr+0x4dd>
  405f63:	48 8d 4c 24 20       	lea    0x20(%rsp),%rcx
  405f68:	44 89 e2             	mov    %r12d,%edx
  405f6b:	be 28 88 40 00       	mov    $0x408828,%esi
  405f70:	48 89 ef             	mov    %rbp,%rdi
  405f73:	b8 00 00 00 00       	mov    $0x0,%eax
  405f78:	e8 a3 b2 ff ff       	callq  401220 <sprintf@plt>
  405f7d:	89 df                	mov    %ebx,%edi
  405f7f:	e8 7c b1 ff ff       	callq  401100 <close@plt>
  405f84:	b8 ff ff ff ff       	mov    $0xffffffff,%eax
  405f89:	e9 0e fe ff ff       	jmpq   405d9c <submitr+0x4dd>

0000000000405f8e <init_timeout>:
  405f8e:	85 ff                	test   %edi,%edi
  405f90:	74 24                	je     405fb6 <init_timeout+0x28>
  405f92:	53                   	push   %rbx
  405f93:	89 fb                	mov    %edi,%ebx
  405f95:	78 18                	js     405faf <init_timeout+0x21>
  405f97:	be 68 56 40 00       	mov    $0x405668,%esi
  405f9c:	bf 0e 00 00 00       	mov    $0xe,%edi
  405fa1:	e8 8a b1 ff ff       	callq  401130 <signal@plt>
  405fa6:	89 df                	mov    %ebx,%edi
  405fa8:	e8 43 b1 ff ff       	callq  4010f0 <alarm@plt>
  405fad:	5b                   	pop    %rbx
  405fae:	c3                   	retq   
  405faf:	bb 00 00 00 00       	mov    $0x0,%ebx
  405fb4:	eb e1                	jmp    405f97 <init_timeout+0x9>
  405fb6:	c3                   	retq   

0000000000405fb7 <init_driver>:
  405fb7:	55                   	push   %rbp
  405fb8:	53                   	push   %rbx
  405fb9:	48 83 ec 08          	sub    $0x8,%rsp
  405fbd:	48 89 fd             	mov    %rdi,%rbp
  405fc0:	be 01 00 00 00       	mov    $0x1,%esi
  405fc5:	bf 0d 00 00 00       	mov    $0xd,%edi
  405fca:	e8 61 b1 ff ff       	callq  401130 <signal@plt>
  405fcf:	be 01 00 00 00       	mov    $0x1,%esi
  405fd4:	bf 1d 00 00 00       	mov    $0x1d,%edi
  405fd9:	e8 52 b1 ff ff       	callq  401130 <signal@plt>
  405fde:	be 01 00 00 00       	mov    $0x1,%esi
  405fe3:	bf 1d 00 00 00       	mov    $0x1d,%edi
  405fe8:	e8 43 b1 ff ff       	callq  401130 <signal@plt>
  405fed:	ba 00 00 00 00       	mov    $0x0,%edx
  405ff2:	be 01 00 00 00       	mov    $0x1,%esi
  405ff7:	bf 02 00 00 00       	mov    $0x2,%edi
  405ffc:	e8 6f b2 ff ff       	callq  401270 <socket@plt>
  406001:	85 c0                	test   %eax,%eax
  406003:	0f 88 88 00 00 00    	js     406091 <init_driver+0xda>
  406009:	89 c3                	mov    %eax,%ebx
  40600b:	bf b5 73 40 00       	mov    $0x4073b5,%edi
  406010:	e8 2b b1 ff ff       	callq  401140 <gethostbyname@plt>
  406015:	48 85 c0             	test   %rax,%rax
  406018:	0f 84 bf 00 00 00    	je     4060dd <init_driver+0x126>
  40601e:	48 c7 05 27 56 00 00 	movq   $0x0,0x5627(%rip)        # 40b650 <serveraddr>
  406025:	00 00 00 00 
  406029:	48 c7 05 24 56 00 00 	movq   $0x0,0x5624(%rip)        # 40b658 <serveraddr+0x8>
  406030:	00 00 00 00 
  406034:	66 c7 05 13 56 00 00 	movw   $0x2,0x5613(%rip)        # 40b650 <serveraddr>
  40603b:	02 00 
  40603d:	48 8b 48 18          	mov    0x18(%rax),%rcx
  406041:	48 63 50 14          	movslq 0x14(%rax),%rdx
  406045:	48 8b 31             	mov    (%rcx),%rsi
  406048:	bf 54 b6 40 00       	mov    $0x40b654,%edi
  40604d:	e8 6e b1 ff ff       	callq  4011c0 <memmove@plt>
  406052:	66 c7 05 f7 55 00 00 	movw   $0x9b3c,0x55f7(%rip)        # 40b652 <serveraddr+0x2>
  406059:	3c 9b 
  40605b:	ba 10 00 00 00       	mov    $0x10,%edx
  406060:	be 50 b6 40 00       	mov    $0x40b650,%esi
  406065:	89 df                	mov    %ebx,%edi
  406067:	e8 d4 b1 ff ff       	callq  401240 <connect@plt>
  40606c:	85 c0                	test   %eax,%eax
  40606e:	0f 88 d1 00 00 00    	js     406145 <init_driver+0x18e>
  406074:	89 df                	mov    %ebx,%edi
  406076:	e8 85 b0 ff ff       	callq  401100 <close@plt>
  40607b:	66 c7 45 00 4f 4b    	movw   $0x4b4f,0x0(%rbp)
  406081:	c6 45 02 00          	movb   $0x0,0x2(%rbp)
  406085:	b8 00 00 00 00       	mov    $0x0,%eax
  40608a:	48 83 c4 08          	add    $0x8,%rsp
  40608e:	5b                   	pop    %rbx
  40608f:	5d                   	pop    %rbp
  406090:	c3                   	retq   
  406091:	48 b8 45 72 72 6f 72 	movabs $0x43203a726f727245,%rax
  406098:	3a 20 43 
  40609b:	48 ba 6c 69 65 6e 74 	movabs $0x6e7520746e65696c,%rdx
  4060a2:	20 75 6e 
  4060a5:	48 89 45 00          	mov    %rax,0x0(%rbp)
  4060a9:	48 89 55 08          	mov    %rdx,0x8(%rbp)
  4060ad:	48 b8 61 62 6c 65 20 	movabs $0x206f7420656c6261,%rax
  4060b4:	74 6f 20 
  4060b7:	48 ba 63 72 65 61 74 	movabs $0x7320657461657263,%rdx
  4060be:	65 20 73 
  4060c1:	48 89 45 10          	mov    %rax,0x10(%rbp)
  4060c5:	48 89 55 18          	mov    %rdx,0x18(%rbp)
  4060c9:	c7 45 20 6f 63 6b 65 	movl   $0x656b636f,0x20(%rbp)
  4060d0:	66 c7 45 24 74 00    	movw   $0x74,0x24(%rbp)
  4060d6:	b8 ff ff ff ff       	mov    $0xffffffff,%eax
  4060db:	eb ad                	jmp    40608a <init_driver+0xd3>
  4060dd:	48 b8 45 72 72 6f 72 	movabs $0x44203a726f727245,%rax
  4060e4:	3a 20 44 
  4060e7:	48 ba 4e 53 20 69 73 	movabs $0x6e7520736920534e,%rdx
  4060ee:	20 75 6e 
  4060f1:	48 89 45 00          	mov    %rax,0x0(%rbp)
  4060f5:	48 89 55 08          	mov    %rdx,0x8(%rbp)
  4060f9:	48 b8 61 62 6c 65 20 	movabs $0x206f7420656c6261,%rax
  406100:	74 6f 20 
  406103:	48 ba 72 65 73 6f 6c 	movabs $0x2065766c6f736572,%rdx
  40610a:	76 65 20 
  40610d:	48 89 45 10          	mov    %rax,0x10(%rbp)
  406111:	48 89 55 18          	mov    %rdx,0x18(%rbp)
  406115:	48 b8 73 65 72 76 65 	movabs $0x6120726576726573,%rax
  40611c:	72 20 61 
  40611f:	48 89 45 20          	mov    %rax,0x20(%rbp)
  406123:	c7 45 28 64 64 72 65 	movl   $0x65726464,0x28(%rbp)
  40612a:	66 c7 45 2c 73 73    	movw   $0x7373,0x2c(%rbp)
  406130:	c6 45 2e 00          	movb   $0x0,0x2e(%rbp)
  406134:	89 df                	mov    %ebx,%edi
  406136:	e8 c5 af ff ff       	callq  401100 <close@plt>
  40613b:	b8 ff ff ff ff       	mov    $0xffffffff,%eax
  406140:	e9 45 ff ff ff       	jmpq   40608a <init_driver+0xd3>
  406145:	48 b8 61 6c 6c 65 6d 	movabs $0x6e67616d656c6c61,%rax
  40614c:	61 67 6e 
  40614f:	48 ba 65 2e 70 6f 6c 	movabs $0x6574796c6f702e65,%rdx
  406156:	79 74 65 
  406159:	48 89 45 00          	mov    %rax,0x0(%rbp)
  40615d:	48 89 55 08          	mov    %rdx,0x8(%rbp)
  406161:	48 b8 63 68 6e 69 71 	movabs $0x2e657571696e6863,%rax
  406168:	75 65 2e 
  40616b:	48 89 45 10          	mov    %rax,0x10(%rbp)
  40616f:	66 c7 45 18 66 72    	movw   $0x7266,0x18(%rbp)
  406175:	c6 45 1a 00          	movb   $0x0,0x1a(%rbp)
  406179:	48 b8 45 72 72 6f 72 	movabs $0x55203a726f727245,%rax
  406180:	3a 20 55 
  406183:	48 ba 6e 61 62 6c 65 	movabs $0x6f7420656c62616e,%rdx
  40618a:	20 74 6f 
  40618d:	48 89 45 00          	mov    %rax,0x0(%rbp)
  406191:	48 89 55 08          	mov    %rdx,0x8(%rbp)
  406195:	48 b8 20 63 6f 6e 6e 	movabs $0x7463656e6e6f6320,%rax
  40619c:	65 63 74 
  40619f:	48 ba 20 74 6f 20 73 	movabs $0x76726573206f7420,%rdx
  4061a6:	65 72 76 
  4061a9:	48 89 45 10          	mov    %rax,0x10(%rbp)
  4061ad:	48 89 55 18          	mov    %rdx,0x18(%rbp)
  4061b1:	66 c7 45 20 65 72    	movw   $0x7265,0x20(%rbp)
  4061b7:	c6 45 22 00          	movb   $0x0,0x22(%rbp)
  4061bb:	89 df                	mov    %ebx,%edi
  4061bd:	e8 3e af ff ff       	callq  401100 <close@plt>
  4061c2:	b8 ff ff ff ff       	mov    $0xffffffff,%eax
  4061c7:	e9 be fe ff ff       	jmpq   40608a <init_driver+0xd3>

00000000004061cc <driver_post>:
  4061cc:	53                   	push   %rbx
  4061cd:	4c 89 cb             	mov    %r9,%rbx
  4061d0:	45 85 c0             	test   %r8d,%r8d
  4061d3:	75 18                	jne    4061ed <driver_post+0x21>
  4061d5:	48 85 ff             	test   %rdi,%rdi
  4061d8:	74 05                	je     4061df <driver_post+0x13>
  4061da:	80 3f 00             	cmpb   $0x0,(%rdi)
  4061dd:	75 30                	jne    40620f <driver_post+0x43>
  4061df:	66 c7 03 4f 4b       	movw   $0x4b4f,(%rbx)
  4061e4:	c6 43 02 00          	movb   $0x0,0x2(%rbx)
  4061e8:	44 89 c0             	mov    %r8d,%eax
  4061eb:	5b                   	pop    %rbx
  4061ec:	c3                   	retq   
  4061ed:	48 89 ce             	mov    %rcx,%rsi
  4061f0:	bf 68 88 40 00       	mov    $0x408868,%edi
  4061f5:	b8 00 00 00 00       	mov    $0x0,%eax
  4061fa:	e8 d1 ae ff ff       	callq  4010d0 <printf@plt>
  4061ff:	66 c7 03 4f 4b       	movw   $0x4b4f,(%rbx)
  406204:	c6 43 02 00          	movb   $0x0,0x2(%rbx)
  406208:	b8 00 00 00 00       	mov    $0x0,%eax
  40620d:	eb dc                	jmp    4061eb <driver_post+0x1f>
  40620f:	48 83 ec 08          	sub    $0x8,%rsp
  406213:	41 51                	push   %r9
  406215:	49 89 c9             	mov    %rcx,%r9
  406218:	49 89 d0             	mov    %rdx,%r8
  40621b:	48 89 f9             	mov    %rdi,%rcx
  40621e:	48 89 f2             	mov    %rsi,%rdx
  406221:	be 9b 3c 00 00       	mov    $0x3c9b,%esi
  406226:	bf b5 73 40 00       	mov    $0x4073b5,%edi
  40622b:	e8 8f f6 ff ff       	callq  4058bf <submitr>
  406230:	48 83 c4 10          	add    $0x10,%rsp
  406234:	eb b5                	jmp    4061eb <driver_post+0x1f>

0000000000406236 <check>:
  406236:	89 f8                	mov    %edi,%eax
  406238:	c1 e8 1c             	shr    $0x1c,%eax
  40623b:	74 1d                	je     40625a <check+0x24>
  40623d:	b9 00 00 00 00       	mov    $0x0,%ecx
  406242:	83 f9 1f             	cmp    $0x1f,%ecx
  406245:	7f 0d                	jg     406254 <check+0x1e>
  406247:	89 f8                	mov    %edi,%eax
  406249:	d3 e8                	shr    %cl,%eax
  40624b:	3c 0a                	cmp    $0xa,%al
  40624d:	74 11                	je     406260 <check+0x2a>
  40624f:	83 c1 08             	add    $0x8,%ecx
  406252:	eb ee                	jmp    406242 <check+0xc>
  406254:	b8 01 00 00 00       	mov    $0x1,%eax
  406259:	c3                   	retq   
  40625a:	b8 00 00 00 00       	mov    $0x0,%eax
  40625f:	c3                   	retq   
  406260:	b8 00 00 00 00       	mov    $0x0,%eax
  406265:	c3                   	retq   

0000000000406266 <gencookie>:
  406266:	53                   	push   %rbx
  406267:	83 c7 01             	add    $0x1,%edi
  40626a:	e8 e1 ad ff ff       	callq  401050 <srandom@plt>
  40626f:	e8 2c af ff ff       	callq  4011a0 <random@plt>
  406274:	89 c3                	mov    %eax,%ebx
  406276:	89 c7                	mov    %eax,%edi
  406278:	e8 b9 ff ff ff       	callq  406236 <check>
  40627d:	85 c0                	test   %eax,%eax
  40627f:	74 ee                	je     40626f <gencookie+0x9>
  406281:	89 d8                	mov    %ebx,%eax
  406283:	5b                   	pop    %rbx
  406284:	c3                   	retq   

Disassembly of section .fini:

0000000000406288 <_fini>:
  406288:	f3 0f 1e fa          	endbr64 
  40628c:	48 83 ec 08          	sub    $0x8,%rsp
  406290:	48 83 c4 08          	add    $0x8,%rsp
  406294:	c3                   	retq   
